
========================================================================

** ELF Header Information

    File Name: ./Objects/Oximeter_example.axf

    Machine class: ELFCLASS32 (32-bit)
    Data encoding: ELFDATA2LSB (Little endian)
    Header version: EV_CURRENT (Current version)
    Operating System ABI: none
    ABI Version: 0
    File Type: ET_EXEC (Executable) (2)
    Machine: EM_ARM (ARM)

    Image Entry point: 0x1000004d
    Flags: EF_ARM_HASENTRY + EF_ARM_ABI_FLOAT_SOFT (0x05000202)

    ARM ELF revision: 5 (ABI version 2)

    Conforms to Soft float procedure-call standard

    Built with
    Component: ARM Compiler 5.06 update 6 (build 750) Tool: armasm [4d35ec]
    Component: ARM Compiler 5.06 update 6 (build 750) Tool: armlink [4d35ed]

    Header size: 52 bytes (0x34)
    Program header entry size: 32 bytes (0x20)
    Section header entry size: 40 bytes (0x28)

    Program header entries: 1
    Section header entries: 18

    Program header offset: 211580 (0x00033a7c)
    Section header offset: 211612 (0x00033a9c)

    Section header string table index: 17

========================================================================

** Program header #0 (PT_LOAD) [PF_X + PF_W + PF_R + PF_ARM_ENTRY]
    Size : 12420 bytes (9580 bytes in file)
    Virtual address: 0x10000000 (Alignment 8)


========================================================================

** Section #1 'ER_IROM1' (SHT_PROGBITS) [SHF_ALLOC + SHF_EXECINSTR]
    Size   : 9228 bytes (alignment 4)
    Address: 0x10000000

    $d.realdata
    RESET
    __Vectors
        0x10000000:    00004c78    xL..    DCD    19576
        0x10000004:    1000004d    M...    DCD    268435533
        0x10000008:    100012dd    ....    DCD    268440285
        0x1000000c:    10000c33    3...    DCD    268438579
        0x10000010:    00000000    ....    DCD    0
        0x10000014:    00000000    ....    DCD    0
        0x10000018:    00000000    ....    DCD    0
        0x1000001c:    00000000    ....    DCD    0
        0x10000020:    00000000    ....    DCD    0
        0x10000024:    00000000    ....    DCD    0
        0x10000028:    00000000    ....    DCD    0
        0x1000002c:    10001809    ....    DCD    268441609
        0x10000030:    00000000    ....    DCD    0
        0x10000034:    00000000    ....    DCD    0
        0x10000038:    10001441    A...    DCD    268440641
        0x1000003c:    10001cd5    ....    DCD    268442837
        0x10000040:    10002131    1!..    DCD    268443953
        0x10000044:    1000235d    ]#..    DCD    268444509
        0x10000048:    10002029    ) ..    DCD    268443689
    $t
    .text
    Reset_Handler
    __Vectors_End
        0x1000004c:    480b        .H      LDR      r0,[pc,#44] ; [0x1000007c] = 0x10ff0008
        0x1000004e:    490c        .I      LDR      r1,[pc,#48] ; [0x10000080] = 0
        0x10000050:    6001        .`      STR      r1,[r0,#0]
        0x10000052:    2000        .       MOVS     r0,#0
        0x10000054:    490b        .I      LDR      r1,[pc,#44] ; [0x10000084] = 0x4160
        0x10000056:    4a0c        .J      LDR      r2,[pc,#48] ; [0x10000088] = 0x4c78
        0x10000058:    6008        .`      STR      r0,[r1,#0]
        0x1000005a:    1d09        ..      ADDS     r1,r1,#4
        0x1000005c:    4291        .B      CMP      r1,r2
        0x1000005e:    d3fb        ..      BCC      0x10000058 ; Reset_Handler + 12
        0x10000060:    480a        .H      LDR      r0,[pc,#40] ; [0x1000008c] = 0x10001dcd
        0x10000062:    4780        .G      BLX      r0
        0x10000064:    480a        .H      LDR      r0,[pc,#40] ; [0x10000090] = 0x10001e35
        0x10000066:    4700        .G      BX       r0
        0x10000068:    e7fe        ..      B        0x10000068 ; Reset_Handler + 28
        0x1000006a:    e7fe        ..      B        0x1000006a ; Reset_Handler + 30
        0x1000006c:    e7fe        ..      B        0x1000006c ; Reset_Handler + 32
        0x1000006e:    e7fe        ..      B        0x1000006e ; Reset_Handler + 34
        0x10000070:    e7fe        ..      B        0x10000070 ; Reset_Handler + 36
        0x10000072:    e7fe        ..      B        0x10000072 ; Reset_Handler + 38
        0x10000074:    e7fe        ..      B        0x10000074 ; Reset_Handler + 40
        0x10000076:    e7fe        ..      B        0x10000076 ; Reset_Handler + 42
        0x10000078:    e7fe        ..      B        0x10000078 ; Reset_Handler + 44
    $d
        0x1000007a:    0000        ..      DCW    0
        0x1000007c:    10ff0008    ....    DCD    285147144
        0x10000080:    00000000    ....    DCD    0
        0x10000084:    00004160    `A..    DCD    16736
        0x10000088:    00004c78    xL..    DCD    19576
        0x1000008c:    10001dcd    ....    DCD    268443085
        0x10000090:    10001e35    5...    DCD    268443189
    $t
    .text
    __aeabi_uidiv
    __aeabi_uidivmod
        0x10000094:    b530        0.      PUSH     {r4,r5,lr}
        0x10000096:    460b        .F      MOV      r3,r1
        0x10000098:    4601        .F      MOV      r1,r0
        0x1000009a:    2000        .       MOVS     r0,#0
        0x1000009c:    2220         "      MOVS     r2,#0x20
        0x1000009e:    2401        .$      MOVS     r4,#1
        0x100000a0:    e009        ..      B        0x100000b6 ; __aeabi_uidiv + 34
        0x100000a2:    460d        .F      MOV      r5,r1
        0x100000a4:    40d5        .@      LSRS     r5,r5,r2
        0x100000a6:    429d        .B      CMP      r5,r3
        0x100000a8:    d305        ..      BCC      0x100000b6 ; __aeabi_uidiv + 34
        0x100000aa:    461d        .F      MOV      r5,r3
        0x100000ac:    4095        .@      LSLS     r5,r5,r2
        0x100000ae:    1b49        I.      SUBS     r1,r1,r5
        0x100000b0:    4625        %F      MOV      r5,r4
        0x100000b2:    4095        .@      LSLS     r5,r5,r2
        0x100000b4:    1940        @.      ADDS     r0,r0,r5
        0x100000b6:    4615        .F      MOV      r5,r2
        0x100000b8:    1e52        R.      SUBS     r2,r2,#1
        0x100000ba:    2d00        .-      CMP      r5,#0
        0x100000bc:    dcf1        ..      BGT      0x100000a2 ; __aeabi_uidiv + 14
        0x100000be:    bd30        0.      POP      {r4,r5,pc}
    .text
    __aeabi_idiv
    __aeabi_idivmod
        0x100000c0:    b570        p.      PUSH     {r4-r6,lr}
        0x100000c2:    2400        .$      MOVS     r4,#0
        0x100000c4:    4625        %F      MOV      r5,r4
        0x100000c6:    2800        .(      CMP      r0,#0
        0x100000c8:    da01        ..      BGE      0x100000ce ; __aeabi_idiv + 14
        0x100000ca:    2401        .$      MOVS     r4,#1
        0x100000cc:    4240        @B      RSBS     r0,r0,#0
        0x100000ce:    2900        .)      CMP      r1,#0
        0x100000d0:    da01        ..      BGE      0x100000d6 ; __aeabi_idiv + 22
        0x100000d2:    2501        .%      MOVS     r5,#1
        0x100000d4:    4249        IB      RSBS     r1,r1,#0
        0x100000d6:    f7ffffdd    ....    BL       __aeabi_uidiv ; 0x10000094
        0x100000da:    42ac        .B      CMP      r4,r5
        0x100000dc:    d000        ..      BEQ      0x100000e0 ; __aeabi_idiv + 32
        0x100000de:    4240        @B      RSBS     r0,r0,#0
        0x100000e0:    2c00        .,      CMP      r4,#0
        0x100000e2:    d000        ..      BEQ      0x100000e6 ; __aeabi_idiv + 38
        0x100000e4:    4249        IB      RSBS     r1,r1,#0
        0x100000e6:    bd70        p.      POP      {r4-r6,pc}
    .text
    ___aeabi_memcpy8$move
    __aeabi_memcpy
    __aeabi_memcpy4
    __aeabi_memmove
    __aeabi_memmove4
    __aeabi_memmove8
        0x100000e8:    b510        ..      PUSH     {r4,lr}
        0x100000ea:    1a43        C.      SUBS     r3,r0,r1
        0x100000ec:    4293        .B      CMP      r3,r2
        0x100000ee:    d209        ..      BCS      0x10000104 ; ___aeabi_memcpy8$move + 28
        0x100000f0:    1883        ..      ADDS     r3,r0,r2
        0x100000f2:    1888        ..      ADDS     r0,r1,r2
        0x100000f4:    e003        ..      B        0x100000fe ; ___aeabi_memcpy8$move + 22
        0x100000f6:    1e40        @.      SUBS     r0,r0,#1
        0x100000f8:    7801        .x      LDRB     r1,[r0,#0]
        0x100000fa:    1e5b        [.      SUBS     r3,r3,#1
        0x100000fc:    7019        .p      STRB     r1,[r3,#0]
        0x100000fe:    1e52        R.      SUBS     r2,r2,#1
        0x10000100:    d2f9        ..      BCS      0x100000f6 ; ___aeabi_memcpy8$move + 14
        0x10000102:    bd10        ..      POP      {r4,pc}
        0x10000104:    4603        .F      MOV      r3,r0
        0x10000106:    430b        .C      ORRS     r3,r3,r1
        0x10000108:    079b        ..      LSLS     r3,r3,#30
        0x1000010a:    d003        ..      BEQ      0x10000114 ; ___aeabi_memcpy8$move + 44
        0x1000010c:    e009        ..      B        0x10000122 ; ___aeabi_memcpy8$move + 58
        0x1000010e:    c908        ..      LDM      r1!,{r3}
        0x10000110:    1f12        ..      SUBS     r2,r2,#4
        0x10000112:    c008        ..      STM      r0!,{r3}
        0x10000114:    2a04        .*      CMP      r2,#4
        0x10000116:    d2fa        ..      BCS      0x1000010e ; ___aeabi_memcpy8$move + 38
        0x10000118:    e003        ..      B        0x10000122 ; ___aeabi_memcpy8$move + 58
        0x1000011a:    780b        .x      LDRB     r3,[r1,#0]
        0x1000011c:    7003        .p      STRB     r3,[r0,#0]
        0x1000011e:    1c40        @.      ADDS     r0,r0,#1
        0x10000120:    1c49        I.      ADDS     r1,r1,#1
        0x10000122:    1e52        R.      SUBS     r2,r2,#1
        0x10000124:    d2f9        ..      BCS      0x1000011a ; ___aeabi_memcpy8$move + 50
        0x10000126:    bd10        ..      POP      {r4,pc}
    .text
    __aeabi_memset
    __aeabi_memset4
    __aeabi_memset8
        0x10000128:    b2d2        ..      UXTB     r2,r2
        0x1000012a:    e001        ..      B        0x10000130 ; __aeabi_memset + 8
        0x1000012c:    7002        .p      STRB     r2,[r0,#0]
        0x1000012e:    1c40        @.      ADDS     r0,r0,#1
        0x10000130:    1e49        I.      SUBS     r1,r1,#1
        0x10000132:    d2fb        ..      BCS      0x1000012c ; __aeabi_memset + 4
        0x10000134:    4770        pG      BX       lr
    __aeabi_memclr
    __aeabi_memclr4
    __aeabi_memclr8
        0x10000136:    2200        ."      MOVS     r2,#0
        0x10000138:    e7f6        ..      B        __aeabi_memset ; 0x10000128
    _memset$wrapper
        0x1000013a:    b510        ..      PUSH     {r4,lr}
        0x1000013c:    4613        .F      MOV      r3,r2
        0x1000013e:    460a        .F      MOV      r2,r1
        0x10000140:    4604        .F      MOV      r4,r0
        0x10000142:    4619        .F      MOV      r1,r3
        0x10000144:    f7fffff0    ....    BL       __aeabi_memset ; 0x10000128
        0x10000148:    4620         F      MOV      r0,r4
        0x1000014a:    bd10        ..      POP      {r4,pc}
    .text
    __aeabi_fadd
        0x1000014c:    b5f8        ..      PUSH     {r3-r7,lr}
        0x1000014e:    4602        .F      MOV      r2,r0
        0x10000150:    404a        J@      EORS     r2,r2,r1
        0x10000152:    0fd4        ..      LSRS     r4,r2,#31
        0x10000154:    0042        B.      LSLS     r2,r0,#1
        0x10000156:    004b        K.      LSLS     r3,r1,#1
        0x10000158:    0852        R.      LSRS     r2,r2,#1
        0x1000015a:    085b        [.      LSRS     r3,r3,#1
        0x1000015c:    429a        .B      CMP      r2,r3
        0x1000015e:    d202        ..      BCS      0x10000166 ; __aeabi_fadd + 26
        0x10000160:    4602        .F      MOV      r2,r0
        0x10000162:    4608        .F      MOV      r0,r1
        0x10000164:    4611        .F      MOV      r1,r2
        0x10000166:    004a        J.      LSLS     r2,r1,#1
        0x10000168:    d023        #.      BEQ      0x100001b2 ; __aeabi_fadd + 102
        0x1000016a:    0dc3        ..      LSRS     r3,r0,#23
        0x1000016c:    004a        J.      LSLS     r2,r1,#1
        0x1000016e:    b2dd        ..      UXTB     r5,r3
        0x10000170:    0e12        ..      LSRS     r2,r2,#24
        0x10000172:    1aad        ..      SUBS     r5,r5,r2
        0x10000174:    2d20         -      CMP      r5,#0x20
        0x10000176:    da35        5.      BGE      0x100001e4 ; __aeabi_fadd + 152
        0x10000178:    0249        I.      LSLS     r1,r1,#9
        0x1000017a:    2601        .&      MOVS     r6,#1
        0x1000017c:    0a49        I.      LSRS     r1,r1,#9
        0x1000017e:    05f6        ..      LSLS     r6,r6,#23
        0x10000180:    198a        ..      ADDS     r2,r1,r6
        0x10000182:    2c00        .,      CMP      r4,#0
        0x10000184:    d000        ..      BEQ      0x10000188 ; __aeabi_fadd + 60
        0x10000186:    4252        RB      RSBS     r2,r2,#0
        0x10000188:    2120         !      MOVS     r1,#0x20
        0x1000018a:    1b4f        O.      SUBS     r7,r1,r5
        0x1000018c:    4611        .F      MOV      r1,r2
        0x1000018e:    40b9        .@      LSLS     r1,r1,r7
        0x10000190:    412a        *A      ASRS     r2,r2,r5
        0x10000192:    1810        ..      ADDS     r0,r2,r0
        0x10000194:    0dc2        ..      LSRS     r2,r0,#23
        0x10000196:    429a        .B      CMP      r2,r3
        0x10000198:    d021        !.      BEQ      0x100001de ; __aeabi_fadd + 146
        0x1000019a:    2c00        .,      CMP      r4,#0
        0x1000019c:    d017        ..      BEQ      0x100001ce ; __aeabi_fadd + 130
        0x1000019e:    2d01        .-      CMP      r5,#1
        0x100001a0:    dc08        ..      BGT      0x100001b4 ; __aeabi_fadd + 104
        0x100001a2:    05da        ..      LSLS     r2,r3,#23
        0x100001a4:    1a80        ..      SUBS     r0,r0,r2
        0x100001a6:    0fd2        ..      LSRS     r2,r2,#31
        0x100001a8:    1980        ..      ADDS     r0,r0,r6
        0x100001aa:    07d2        ..      LSLS     r2,r2,#31
        0x100001ac:    b2db        ..      UXTB     r3,r3
        0x100001ae:    f000f9ba    ....    BL       _float_epilogue ; 0x10000526
        0x100001b2:    bdf8        ..      POP      {r3-r7,pc}
        0x100001b4:    05da        ..      LSLS     r2,r3,#23
        0x100001b6:    1a80        ..      SUBS     r0,r0,r2
        0x100001b8:    2301        .#      MOVS     r3,#1
        0x100001ba:    0040        @.      LSLS     r0,r0,#1
        0x100001bc:    061b        ..      LSLS     r3,r3,#24
        0x100001be:    18c0        ..      ADDS     r0,r0,r3
        0x100001c0:    1880        ..      ADDS     r0,r0,r2
        0x100001c2:    425a        ZB      RSBS     r2,r3,#0
        0x100001c4:    1880        ..      ADDS     r0,r0,r2
        0x100001c6:    0fca        ..      LSRS     r2,r1,#31
        0x100001c8:    4310        .C      ORRS     r0,r0,r2
        0x100001ca:    0049        I.      LSLS     r1,r1,#1
        0x100001cc:    e007        ..      B        0x100001de ; __aeabi_fadd + 146
        0x100001ce:    0849        I.      LSRS     r1,r1,#1
        0x100001d0:    07c2        ..      LSLS     r2,r0,#31
        0x100001d2:    4311        .C      ORRS     r1,r1,r2
        0x100001d4:    05da        ..      LSLS     r2,r3,#23
        0x100001d6:    1a80        ..      SUBS     r0,r0,r2
        0x100001d8:    1980        ..      ADDS     r0,r0,r6
        0x100001da:    0840        @.      LSRS     r0,r0,#1
        0x100001dc:    1880        ..      ADDS     r0,r0,r2
        0x100001de:    f000f99a    ....    BL       __I$use$fp ; 0x10000516
        0x100001e2:    bdf8        ..      POP      {r3-r7,pc}
        0x100001e4:    0061        a.      LSLS     r1,r4,#1
        0x100001e6:    2201        ."      MOVS     r2,#1
        0x100001e8:    1a51        Q.      SUBS     r1,r2,r1
        0x100001ea:    1b00        ..      SUBS     r0,r0,r4
        0x100001ec:    e7f7        ..      B        0x100001de ; __aeabi_fadd + 146
    __aeabi_fsub
        0x100001ee:    2201        ."      MOVS     r2,#1
        0x100001f0:    07d2        ..      LSLS     r2,r2,#31
        0x100001f2:    4051        Q@      EORS     r1,r1,r2
        0x100001f4:    e7aa        ..      B        __aeabi_fadd ; 0x1000014c
    __aeabi_frsub
        0x100001f6:    2201        ."      MOVS     r2,#1
        0x100001f8:    07d2        ..      LSLS     r2,r2,#31
        0x100001fa:    4050        P@      EORS     r0,r0,r2
        0x100001fc:    e7a6        ..      B        __aeabi_fadd ; 0x1000014c
    .text
    __aeabi_fmul
        0x100001fe:    4602        .F      MOV      r2,r0
        0x10000200:    b570        p.      PUSH     {r4-r6,lr}
        0x10000202:    404a        J@      EORS     r2,r2,r1
        0x10000204:    0fd3        ..      LSRS     r3,r2,#31
        0x10000206:    07db        ..      LSLS     r3,r3,#31
        0x10000208:    0040        @.      LSLS     r0,r0,#1
        0x1000020a:    d02d        -.      BEQ      0x10000268 ; __aeabi_fmul + 106
        0x1000020c:    004a        J.      LSLS     r2,r1,#1
        0x1000020e:    d02a        *.      BEQ      0x10000266 ; __aeabi_fmul + 104
        0x10000210:    0e01        ..      LSRS     r1,r0,#24
        0x10000212:    0e14        ..      LSRS     r4,r2,#24
        0x10000214:    0200        ..      LSLS     r0,r0,#8
        0x10000216:    0212        ..      LSLS     r2,r2,#8
        0x10000218:    1909        ..      ADDS     r1,r1,r4
        0x1000021a:    0a40        @.      LSRS     r0,r0,#9
        0x1000021c:    0a52        R.      LSRS     r2,r2,#9
        0x1000021e:    1884        ..      ADDS     r4,r0,r2
        0x10000220:    01e5        ..      LSLS     r5,r4,#7
        0x10000222:    4604        .F      MOV      r4,r0
        0x10000224:    4354        TC      MULS     r4,r2,r4
        0x10000226:    0a00        ..      LSRS     r0,r0,#8
        0x10000228:    0a12        ..      LSRS     r2,r2,#8
        0x1000022a:    042e        ..      LSLS     r6,r5,#16
        0x1000022c:    4350        PC      MULS     r0,r2,r0
        0x1000022e:    19a4        ..      ADDS     r4,r4,r6
        0x10000230:    1942        B.      ADDS     r2,r0,r5
        0x10000232:    0c20         .      LSRS     r0,r4,#16
        0x10000234:    43c5        .C      MVNS     r5,r0
        0x10000236:    18aa        ..      ADDS     r2,r5,r2
        0x10000238:    0c12        ..      LSRS     r2,r2,#16
        0x1000023a:    2501        .%      MOVS     r5,#1
        0x1000023c:    03ad        ..      LSLS     r5,r5,#14
        0x1000023e:    1c52        R.      ADDS     r2,r2,#1
        0x10000240:    1952        R.      ADDS     r2,r2,r5
        0x10000242:    0412        ..      LSLS     r2,r2,#16
        0x10000244:    397f        .9      SUBS     r1,r1,#0x7f
        0x10000246:    0424        $.      LSLS     r4,r4,#16
        0x10000248:    d000        ..      BEQ      0x1000024c ; __aeabi_fmul + 78
        0x1000024a:    1c52        R.      ADDS     r2,r2,#1
        0x1000024c:    4310        .C      ORRS     r0,r0,r2
        0x1000024e:    d401        ..      BMI      0x10000254 ; __aeabi_fmul + 86
        0x10000250:    0040        @.      LSLS     r0,r0,#1
        0x10000252:    1e49        I.      SUBS     r1,r1,#1
        0x10000254:    b2c2        ..      UXTB     r2,r0
        0x10000256:    060c        ..      LSLS     r4,r1,#24
        0x10000258:    09c0        ..      LSRS     r0,r0,#7
        0x1000025a:    1820         .      ADDS     r0,r4,r0
        0x1000025c:    1c40        @.      ADDS     r0,r0,#1
        0x1000025e:    0840        @.      LSRS     r0,r0,#1
        0x10000260:    2a80        .*      CMP      r2,#0x80
        0x10000262:    d002        ..      BEQ      0x1000026a ; __aeabi_fmul + 108
        0x10000264:    e003        ..      B        0x1000026e ; __aeabi_fmul + 112
        0x10000266:    2000        .       MOVS     r0,#0
        0x10000268:    bd70        p.      POP      {r4-r6,pc}
        0x1000026a:    0840        @.      LSRS     r0,r0,#1
        0x1000026c:    0040        @.      LSLS     r0,r0,#1
        0x1000026e:    2900        .)      CMP      r1,#0
        0x10000270:    da00        ..      BGE      0x10000274 ; __aeabi_fmul + 118
        0x10000272:    2000        .       MOVS     r0,#0
        0x10000274:    4318        .C      ORRS     r0,r0,r3
        0x10000276:    bd70        p.      POP      {r4-r6,pc}
    .text
    __aeabi_dmul
        0x10000278:    b5f0        ..      PUSH     {r4-r7,lr}
        0x1000027a:    b41f        ..      PUSH     {r0-r4}
        0x1000027c:    b088        ..      SUB      sp,sp,#0x20
        0x1000027e:    990b        ..      LDR      r1,[sp,#0x2c]
        0x10000280:    9809        ..      LDR      r0,[sp,#0x24]
        0x10000282:    2400        .$      MOVS     r4,#0
        0x10000284:    4048        H@      EORS     r0,r0,r1
        0x10000286:    9909        ..      LDR      r1,[sp,#0x24]
        0x10000288:    0fc0        ..      LSRS     r0,r0,#31
        0x1000028a:    0049        I.      LSLS     r1,r1,#1
        0x1000028c:    0849        I.      LSRS     r1,r1,#1
        0x1000028e:    9109        ..      STR      r1,[sp,#0x24]
        0x10000290:    07c0        ..      LSLS     r0,r0,#31
        0x10000292:    990b        ..      LDR      r1,[sp,#0x2c]
        0x10000294:    9000        ..      STR      r0,[sp,#0]
        0x10000296:    0049        I.      LSLS     r1,r1,#1
        0x10000298:    0849        I.      LSRS     r1,r1,#1
        0x1000029a:    910b        ..      STR      r1,[sp,#0x2c]
        0x1000029c:    9909        ..      LDR      r1,[sp,#0x24]
        0x1000029e:    9808        ..      LDR      r0,[sp,#0x20]
        0x100002a0:    46a6        .F      MOV      lr,r4
        0x100002a2:    4308        .C      ORRS     r0,r0,r1
        0x100002a4:    d01c        ..      BEQ      0x100002e0 ; __aeabi_dmul + 104
        0x100002a6:    990b        ..      LDR      r1,[sp,#0x2c]
        0x100002a8:    980a        ..      LDR      r0,[sp,#0x28]
        0x100002aa:    4308        .C      ORRS     r0,r0,r1
        0x100002ac:    d018        ..      BEQ      0x100002e0 ; __aeabi_dmul + 104
        0x100002ae:    9809        ..      LDR      r0,[sp,#0x24]
        0x100002b0:    2401        .$      MOVS     r4,#1
        0x100002b2:    0040        @.      LSLS     r0,r0,#1
        0x100002b4:    0d42        B.      LSRS     r2,r0,#21
        0x100002b6:    0048        H.      LSLS     r0,r1,#1
        0x100002b8:    0d41        A.      LSRS     r1,r0,#21
        0x100002ba:    9809        ..      LDR      r0,[sp,#0x24]
        0x100002bc:    0524        $.      LSLS     r4,r4,#20
        0x100002be:    0300        ..      LSLS     r0,r0,#12
        0x100002c0:    0b00        ..      LSRS     r0,r0,#12
        0x100002c2:    4320         C      ORRS     r0,r0,r4
        0x100002c4:    9009        ..      STR      r0,[sp,#0x24]
        0x100002c6:    980b        ..      LDR      r0,[sp,#0x2c]
        0x100002c8:    0300        ..      LSLS     r0,r0,#12
        0x100002ca:    0b00        ..      LSRS     r0,r0,#12
        0x100002cc:    4320         C      ORRS     r0,r0,r4
        0x100002ce:    900b        ..      STR      r0,[sp,#0x2c]
        0x100002d0:    1850        P.      ADDS     r0,r2,r1
        0x100002d2:    491c        .I      LDR      r1,[pc,#112] ; [0x10000344] = 0xfffffc0d
        0x100002d4:    1840        @.      ADDS     r0,r0,r1
        0x100002d6:    2200        ."      MOVS     r2,#0
        0x100002d8:    9001        ..      STR      r0,[sp,#4]
        0x100002da:    4614        .F      MOV      r4,r2
        0x100002dc:    4610        .F      MOV      r0,r2
        0x100002de:    e005        ..      B        0x100002ec ; __aeabi_dmul + 116
        0x100002e0:    2000        .       MOVS     r0,#0
        0x100002e2:    4601        .F      MOV      r1,r0
        0x100002e4:    b00d        ..      ADD      sp,sp,#0x34
        0x100002e6:    bdf0        ..      POP      {r4-r7,pc}
        0x100002e8:    2803        .(      CMP      r0,#3
        0x100002ea:    da01        ..      BGE      0x100002f0 ; __aeabi_dmul + 120
        0x100002ec:    4603        .F      MOV      r3,r0
        0x100002ee:    e000        ..      B        0x100002f2 ; __aeabi_dmul + 122
        0x100002f0:    2303        .#      MOVS     r3,#3
        0x100002f2:    469c        .F      MOV      r12,r3
        0x100002f4:    1ac1        ..      SUBS     r1,r0,r3
        0x100002f6:    ae0a        ..      ADD      r6,sp,#0x28
        0x100002f8:    e00a        ..      B        0x10000310 ; __aeabi_dmul + 152
        0x100002fa:    005f        _.      LSLS     r7,r3,#1
        0x100002fc:    ad08        ..      ADD      r5,sp,#0x20
        0x100002fe:    5bed        .[      LDRH     r5,[r5,r7]
        0x10000300:    004f        O.      LSLS     r7,r1,#1
        0x10000302:    5bf7        .[      LDRH     r7,[r6,r7]
        0x10000304:    437d        }C      MULS     r5,r7,r5
        0x10000306:    2700        .'      MOVS     r7,#0
        0x10000308:    18aa        ..      ADDS     r2,r5,r2
        0x1000030a:    417c        |A      ADCS     r4,r4,r7
        0x1000030c:    1c49        I.      ADDS     r1,r1,#1
        0x1000030e:    1e5b        [.      SUBS     r3,r3,#1
        0x10000310:    4561        aE      CMP      r1,r12
        0x10000312:    ddf2        ..      BLE      0x100002fa ; __aeabi_dmul + 130
        0x10000314:    0041        A.      LSLS     r1,r0,#1
        0x10000316:    ab04        ..      ADD      r3,sp,#0x10
        0x10000318:    525a        ZR      STRH     r2,[r3,r1]
        0x1000031a:    0421        !.      LSLS     r1,r4,#16
        0x1000031c:    0c12        ..      LSRS     r2,r2,#16
        0x1000031e:    430a        .C      ORRS     r2,r2,r1
        0x10000320:    0c24        $.      LSRS     r4,r4,#16
        0x10000322:    1c40        @.      ADDS     r0,r0,#1
        0x10000324:    2808        .(      CMP      r0,#8
        0x10000326:    dbdf        ..      BLT      0x100002e8 ; __aeabi_dmul + 112
        0x10000328:    9801        ..      LDR      r0,[sp,#4]
        0x1000032a:    9002        ..      STR      r0,[sp,#8]
        0x1000032c:    9900        ..      LDR      r1,[sp,#0]
        0x1000032e:    4670        pF      MOV      r0,lr
        0x10000330:    9101        ..      STR      r1,[sp,#4]
        0x10000332:    9000        ..      STR      r0,[sp,#0]
        0x10000334:    9b05        ..      LDR      r3,[sp,#0x14]
        0x10000336:    9a04        ..      LDR      r2,[sp,#0x10]
        0x10000338:    9907        ..      LDR      r1,[sp,#0x1c]
        0x1000033a:    9806        ..      LDR      r0,[sp,#0x18]
        0x1000033c:    f000f939    ..9.    BL       _double_epilogue ; 0x100005b2
        0x10000340:    e7d0        ..      B        0x100002e4 ; __aeabi_dmul + 108
    $d
        0x10000342:    0000        ..      DCW    0
        0x10000344:    fffffc0d    ....    DCD    4294966285
    $t
    .text
    __aeabi_ddiv
        0x10000348:    b5f0        ..      PUSH     {r4-r7,lr}
        0x1000034a:    460c        .F      MOV      r4,r1
        0x1000034c:    405c        \@      EORS     r4,r4,r3
        0x1000034e:    b085        ..      SUB      sp,sp,#0x14
        0x10000350:    0fe4        ..      LSRS     r4,r4,#31
        0x10000352:    07e4        ..      LSLS     r4,r4,#31
        0x10000354:    9403        ..      STR      r4,[sp,#0xc]
        0x10000356:    004c        L.      LSLS     r4,r1,#1
        0x10000358:    2600        .&      MOVS     r6,#0
        0x1000035a:    0864        d.      LSRS     r4,r4,#1
        0x1000035c:    0059        Y.      LSLS     r1,r3,#1
        0x1000035e:    4694        .F      MOV      r12,r2
        0x10000360:    0849        I.      LSRS     r1,r1,#1
        0x10000362:    4602        .F      MOV      r2,r0
        0x10000364:    9602        ..      STR      r6,[sp,#8]
        0x10000366:    4322        "C      ORRS     r2,r2,r4
        0x10000368:    d021        !.      BEQ      0x100003ae ; __aeabi_ddiv + 102
        0x1000036a:    4662        bF      MOV      r2,r12
        0x1000036c:    430a        .C      ORRS     r2,r2,r1
        0x1000036e:    d01e        ..      BEQ      0x100003ae ; __aeabi_ddiv + 102
        0x10000370:    0062        b.      LSLS     r2,r4,#1
        0x10000372:    0d57        W.      LSRS     r7,r2,#21
        0x10000374:    004a        J.      LSLS     r2,r1,#1
        0x10000376:    030e        ..      LSLS     r6,r1,#12
        0x10000378:    0323        #.      LSLS     r3,r4,#12
        0x1000037a:    0d55        U.      LSRS     r5,r2,#21
        0x1000037c:    2401        .$      MOVS     r4,#1
        0x1000037e:    4602        .F      MOV      r2,r0
        0x10000380:    492c        ,I      LDR      r1,[pc,#176] ; [0x10000434] = 0x3fd
        0x10000382:    0524        $.      LSLS     r4,r4,#20
        0x10000384:    1b78        x.      SUBS     r0,r7,r5
        0x10000386:    0b1b        ..      LSRS     r3,r3,#12
        0x10000388:    0b36        6.      LSRS     r6,r6,#12
        0x1000038a:    1840        @.      ADDS     r0,r0,r1
        0x1000038c:    4323        #C      ORRS     r3,r3,r4
        0x1000038e:    4326        &C      ORRS     r6,r6,r4
        0x10000390:    4661        aF      MOV      r1,r12
        0x10000392:    9000        ..      STR      r0,[sp,#0]
        0x10000394:    461c        .F      MOV      r4,r3
        0x10000396:    1a50        P.      SUBS     r0,r2,r1
        0x10000398:    41b4        .A      SBCS     r4,r4,r6
        0x1000039a:    d303        ..      BCC      0x100003a4 ; __aeabi_ddiv + 92
        0x1000039c:    9800        ..      LDR      r0,[sp,#0]
        0x1000039e:    1c40        @.      ADDS     r0,r0,#1
        0x100003a0:    9000        ..      STR      r0,[sp,#0]
        0x100003a2:    e002        ..      B        0x100003aa ; __aeabi_ddiv + 98
        0x100003a4:    1892        ..      ADDS     r2,r2,r2
        0x100003a6:    9800        ..      LDR      r0,[sp,#0]
        0x100003a8:    415b        [A      ADCS     r3,r3,r3
        0x100003aa:    2800        .(      CMP      r0,#0
        0x100003ac:    da03        ..      BGE      0x100003b6 ; __aeabi_ddiv + 110
        0x100003ae:    2000        .       MOVS     r0,#0
        0x100003b0:    4601        .F      MOV      r1,r0
        0x100003b2:    b005        ..      ADD      sp,sp,#0x14
        0x100003b4:    bdf0        ..      POP      {r4-r7,pc}
        0x100003b6:    2000        .       MOVS     r0,#0
        0x100003b8:    2101        .!      MOVS     r1,#1
        0x100003ba:    0509        ..      LSLS     r1,r1,#20
        0x100003bc:    4607        .F      MOV      r7,r0
        0x100003be:    4686        .F      MOV      lr,r0
        0x100003c0:    e011        ..      B        0x100003e6 ; __aeabi_ddiv + 158
        0x100003c2:    4664        dF      MOV      r4,r12
        0x100003c4:    461d        .F      MOV      r5,r3
        0x100003c6:    1b14        ..      SUBS     r4,r2,r4
        0x100003c8:    41b5        .A      SBCS     r5,r5,r6
        0x100003ca:    d306        ..      BCC      0x100003da ; __aeabi_ddiv + 146
        0x100003cc:    4665        eF      MOV      r5,r12
        0x100003ce:    1b52        R.      SUBS     r2,r2,r5
        0x100003d0:    41b3        .A      SBCS     r3,r3,r6
        0x100003d2:    4674        tF      MOV      r4,lr
        0x100003d4:    4307        .C      ORRS     r7,r7,r0
        0x100003d6:    430c        .C      ORRS     r4,r4,r1
        0x100003d8:    46a6        .F      MOV      lr,r4
        0x100003da:    07cd        ..      LSLS     r5,r1,#31
        0x100003dc:    0840        @.      LSRS     r0,r0,#1
        0x100003de:    0849        I.      LSRS     r1,r1,#1
        0x100003e0:    4328        (C      ORRS     r0,r0,r5
        0x100003e2:    1892        ..      ADDS     r2,r2,r2
        0x100003e4:    415b        [A      ADCS     r3,r3,r3
        0x100003e6:    4605        .F      MOV      r5,r0
        0x100003e8:    430d        .C      ORRS     r5,r5,r1
        0x100003ea:    d1ea        ..      BNE      0x100003c2 ; __aeabi_ddiv + 122
        0x100003ec:    4610        .F      MOV      r0,r2
        0x100003ee:    4318        .C      ORRS     r0,r0,r3
        0x100003f0:    d013        ..      BEQ      0x1000041a ; __aeabi_ddiv + 210
        0x100003f2:    4660        `F      MOV      r0,r12
        0x100003f4:    4619        .F      MOV      r1,r3
        0x100003f6:    4050        P@      EORS     r0,r0,r2
        0x100003f8:    4071        q@      EORS     r1,r1,r6
        0x100003fa:    4308        .C      ORRS     r0,r0,r1
        0x100003fc:    d006        ..      BEQ      0x1000040c ; __aeabi_ddiv + 196
        0x100003fe:    4660        `F      MOV      r0,r12
        0x10000400:    1a10        ..      SUBS     r0,r2,r0
        0x10000402:    41b3        .A      SBCS     r3,r3,r6
        0x10000404:    d206        ..      BCS      0x10000414 ; __aeabi_ddiv + 204
        0x10000406:    2201        ."      MOVS     r2,#1
        0x10000408:    2300        .#      MOVS     r3,#0
        0x1000040a:    e006        ..      B        0x1000041a ; __aeabi_ddiv + 210
        0x1000040c:    2200        ."      MOVS     r2,#0
        0x1000040e:    2301        .#      MOVS     r3,#1
        0x10000410:    07db        ..      LSLS     r3,r3,#31
        0x10000412:    e002        ..      B        0x1000041a ; __aeabi_ddiv + 210
        0x10000414:    2201        ."      MOVS     r2,#1
        0x10000416:    43d2        .C      MVNS     r2,r2
        0x10000418:    1053        S.      ASRS     r3,r2,#1
        0x1000041a:    9800        ..      LDR      r0,[sp,#0]
        0x1000041c:    4674        tF      MOV      r4,lr
        0x1000041e:    0501        ..      LSLS     r1,r0,#20
        0x10000420:    1c38        8.      ADDS     r0,r7,#0
        0x10000422:    4161        aA      ADCS     r1,r1,r4
        0x10000424:    9c02        ..      LDR      r4,[sp,#8]
        0x10000426:    9d03        ..      LDR      r5,[sp,#0xc]
        0x10000428:    1900        ..      ADDS     r0,r0,r4
        0x1000042a:    4169        iA      ADCS     r1,r1,r5
        0x1000042c:    f000f8b4    ....    BL       _double_round ; 0x10000598
        0x10000430:    e7bf        ..      B        0x100003b2 ; __aeabi_ddiv + 106
    $d
        0x10000432:    0000        ..      DCW    0
        0x10000434:    000003fd    ....    DCD    1021
    $t
    .text
    __aeabi_i2f
        0x10000438:    17c2        ..      ASRS     r2,r0,#31
        0x1000043a:    0fc1        ..      LSRS     r1,r0,#31
        0x1000043c:    4050        P@      EORS     r0,r0,r2
        0x1000043e:    b510        ..      PUSH     {r4,lr}
        0x10000440:    1840        @.      ADDS     r0,r0,r1
        0x10000442:    07ca        ..      LSLS     r2,r1,#31
        0x10000444:    2396        .#      MOVS     r3,#0x96
        0x10000446:    2100        .!      MOVS     r1,#0
        0x10000448:    f000f86d    ..m.    BL       _float_epilogue ; 0x10000526
        0x1000044c:    bd10        ..      POP      {r4,pc}
        0x1000044e:    0000        ..      MOVS     r0,r0
    .text
    __aeabi_i2d
        0x10000450:    b50e        ..      PUSH     {r1-r3,lr}
        0x10000452:    17c2        ..      ASRS     r2,r0,#31
        0x10000454:    0fc1        ..      LSRS     r1,r0,#31
        0x10000456:    4050        P@      EORS     r0,r0,r2
        0x10000458:    07ca        ..      LSLS     r2,r1,#31
        0x1000045a:    1840        @.      ADDS     r0,r0,r1
        0x1000045c:    2100        .!      MOVS     r1,#0
        0x1000045e:    4b05        .K      LDR      r3,[pc,#20] ; [0x10000474] = 0x433
        0x10000460:    9302        ..      STR      r3,[sp,#8]
        0x10000462:    9201        ..      STR      r2,[sp,#4]
        0x10000464:    9100        ..      STR      r1,[sp,#0]
        0x10000466:    460a        .F      MOV      r2,r1
        0x10000468:    460b        .F      MOV      r3,r1
        0x1000046a:    f000f8a2    ....    BL       _double_epilogue ; 0x100005b2
        0x1000046e:    b003        ..      ADD      sp,sp,#0xc
        0x10000470:    bd00        ..      POP      {pc}
    $d
        0x10000472:    0000        ..      DCW    0
        0x10000474:    00000433    3...    DCD    1075
    $t
    .text
    __aeabi_f2iz
        0x10000478:    0fc2        ..      LSRS     r2,r0,#31
        0x1000047a:    0041        A.      LSLS     r1,r0,#1
        0x1000047c:    0240        @.      LSLS     r0,r0,#9
        0x1000047e:    2301        .#      MOVS     r3,#1
        0x10000480:    0a40        @.      LSRS     r0,r0,#9
        0x10000482:    05db        ..      LSLS     r3,r3,#23
        0x10000484:    07d2        ..      LSLS     r2,r2,#31
        0x10000486:    0e09        ..      LSRS     r1,r1,#24
        0x10000488:    18c0        ..      ADDS     r0,r0,r3
        0x1000048a:    297f        .)      CMP      r1,#0x7f
        0x1000048c:    da01        ..      BGE      0x10000492 ; __aeabi_f2iz + 26
        0x1000048e:    2000        .       MOVS     r0,#0
        0x10000490:    4770        pG      BX       lr
        0x10000492:    2996        .)      CMP      r1,#0x96
        0x10000494:    dc03        ..      BGT      0x1000049e ; __aeabi_f2iz + 38
        0x10000496:    2396        .#      MOVS     r3,#0x96
        0x10000498:    1a59        Y.      SUBS     r1,r3,r1
        0x1000049a:    40c8        .@      LSRS     r0,r0,r1
        0x1000049c:    e001        ..      B        0x100004a2 ; __aeabi_f2iz + 42
        0x1000049e:    3996        .9      SUBS     r1,r1,#0x96
        0x100004a0:    4088        .@      LSLS     r0,r0,r1
        0x100004a2:    2a00        .*      CMP      r2,#0
        0x100004a4:    d0f4        ..      BEQ      0x10000490 ; __aeabi_f2iz + 24
        0x100004a6:    4240        @B      RSBS     r0,r0,#0
        0x100004a8:    4770        pG      BX       lr
        0x100004aa:    0000        ..      MOVS     r0,r0
    .text
    __aeabi_d2iz
        0x100004ac:    b570        p.      PUSH     {r4-r6,lr}
        0x100004ae:    0fcd        ..      LSRS     r5,r1,#31
        0x100004b0:    004a        J.      LSLS     r2,r1,#1
        0x100004b2:    0309        ..      LSLS     r1,r1,#12
        0x100004b4:    2301        .#      MOVS     r3,#1
        0x100004b6:    0b09        ..      LSRS     r1,r1,#12
        0x100004b8:    051b        ..      LSLS     r3,r3,#20
        0x100004ba:    4319        .C      ORRS     r1,r1,r3
        0x100004bc:    4b0b        .K      LDR      r3,[pc,#44] ; [0x100004ec] = 0x3ff
        0x100004be:    07ed        ..      LSLS     r5,r5,#31
        0x100004c0:    2400        .$      MOVS     r4,#0
        0x100004c2:    0d52        R.      LSRS     r2,r2,#21
        0x100004c4:    429a        .B      CMP      r2,r3
        0x100004c6:    da01        ..      BGE      0x100004cc ; __aeabi_d2iz + 32
        0x100004c8:    2000        .       MOVS     r0,#0
        0x100004ca:    bd70        p.      POP      {r4-r6,pc}
        0x100004cc:    4b07        .K      LDR      r3,[pc,#28] ; [0x100004ec] = 0x3ff
        0x100004ce:    3334        43      ADDS     r3,r3,#0x34
        0x100004d0:    429a        .B      CMP      r2,r3
        0x100004d2:    dc03        ..      BGT      0x100004dc ; __aeabi_d2iz + 48
        0x100004d4:    1a9a        ..      SUBS     r2,r3,r2
        0x100004d6:    f000f80d    ....    BL       __aeabi_llsr ; 0x100004f4
        0x100004da:    e002        ..      B        0x100004e2 ; __aeabi_d2iz + 54
        0x100004dc:    4904        .I      LDR      r1,[pc,#16] ; [0x100004f0] = 0xfffffbcd
        0x100004de:    1851        Q.      ADDS     r1,r2,r1
        0x100004e0:    4088        .@      LSLS     r0,r0,r1
        0x100004e2:    432c        ,C      ORRS     r4,r4,r5
        0x100004e4:    d0f1        ..      BEQ      0x100004ca ; __aeabi_d2iz + 30
        0x100004e6:    4240        @B      RSBS     r0,r0,#0
        0x100004e8:    bd70        p.      POP      {r4-r6,pc}
    $d
        0x100004ea:    0000        ..      DCW    0
        0x100004ec:    000003ff    ....    DCD    1023
        0x100004f0:    fffffbcd    ....    DCD    4294966221
    $t
    .text
    __aeabi_llsr
    _ll_ushift_r
        0x100004f4:    b510        ..      PUSH     {r4,lr}
        0x100004f6:    2a20         *      CMP      r2,#0x20
        0x100004f8:    db04        ..      BLT      0x10000504 ; __aeabi_llsr + 16
        0x100004fa:    4608        .F      MOV      r0,r1
        0x100004fc:    3a20         :      SUBS     r2,r2,#0x20
        0x100004fe:    40d0        .@      LSRS     r0,r0,r2
        0x10000500:    2100        .!      MOVS     r1,#0
        0x10000502:    bd10        ..      POP      {r4,pc}
        0x10000504:    460b        .F      MOV      r3,r1
        0x10000506:    40d3        .@      LSRS     r3,r3,r2
        0x10000508:    40d0        .@      LSRS     r0,r0,r2
        0x1000050a:    2420         $      MOVS     r4,#0x20
        0x1000050c:    1aa2        ..      SUBS     r2,r4,r2
        0x1000050e:    4091        .@      LSLS     r1,r1,r2
        0x10000510:    4308        .C      ORRS     r0,r0,r1
        0x10000512:    4619        .F      MOV      r1,r3
        0x10000514:    bd10        ..      POP      {r4,pc}
    .text
    .text
    __I$use$fp
    _float_round
        0x10000516:    2900        .)      CMP      r1,#0
        0x10000518:    da04        ..      BGE      0x10000524 ; __I$use$fp + 14
        0x1000051a:    1c40        @.      ADDS     r0,r0,#1
        0x1000051c:    0049        I.      LSLS     r1,r1,#1
        0x1000051e:    d101        ..      BNE      0x10000524 ; __I$use$fp + 14
        0x10000520:    0840        @.      LSRS     r0,r0,#1
        0x10000522:    0040        @.      LSLS     r0,r0,#1
        0x10000524:    4770        pG      BX       lr
    _float_epilogue
        0x10000526:    b470        p.      PUSH     {r4-r6}
        0x10000528:    2400        .$      MOVS     r4,#0
        0x1000052a:    0c05        ..      LSRS     r5,r0,#16
        0x1000052c:    d105        ..      BNE      0x1000053a ; _float_epilogue + 20
        0x1000052e:    2410        .$      MOVS     r4,#0x10
        0x10000530:    0400        ..      LSLS     r0,r0,#16
        0x10000532:    d102        ..      BNE      0x1000053a ; _float_epilogue + 20
        0x10000534:    2900        .)      CMP      r1,#0
        0x10000536:    d021        !.      BEQ      0x1000057c ; _float_epilogue + 86
        0x10000538:    2411        .$      MOVS     r4,#0x11
        0x1000053a:    0e05        ..      LSRS     r5,r0,#24
        0x1000053c:    d101        ..      BNE      0x10000542 ; _float_epilogue + 28
        0x1000053e:    0200        ..      LSLS     r0,r0,#8
        0x10000540:    3408        .4      ADDS     r4,r4,#8
        0x10000542:    0f05        ..      LSRS     r5,r0,#28
        0x10000544:    d101        ..      BNE      0x1000054a ; _float_epilogue + 36
        0x10000546:    0100        ..      LSLS     r0,r0,#4
        0x10000548:    1d24        $.      ADDS     r4,r4,#4
        0x1000054a:    0f85        ..      LSRS     r5,r0,#30
        0x1000054c:    d101        ..      BNE      0x10000552 ; _float_epilogue + 44
        0x1000054e:    0080        ..      LSLS     r0,r0,#2
        0x10000550:    1ca4        ..      ADDS     r4,r4,#2
        0x10000552:    2800        .(      CMP      r0,#0
        0x10000554:    db01        ..      BLT      0x1000055a ; _float_epilogue + 52
        0x10000556:    0040        @.      LSLS     r0,r0,#1
        0x10000558:    1c64        d.      ADDS     r4,r4,#1
        0x1000055a:    2900        .)      CMP      r1,#0
        0x1000055c:    d008        ..      BEQ      0x10000570 ; _float_epilogue + 74
        0x1000055e:    2520         %      MOVS     r5,#0x20
        0x10000560:    1b2e        ..      SUBS     r6,r5,r4
        0x10000562:    460d        .F      MOV      r5,r1
        0x10000564:    40f5        .@      LSRS     r5,r5,r6
        0x10000566:    40a1        .@      LSLS     r1,r1,r4
        0x10000568:    d000        ..      BEQ      0x1000056c ; _float_epilogue + 70
        0x1000056a:    2101        .!      MOVS     r1,#1
        0x1000056c:    4329        )C      ORRS     r1,r1,r5
        0x1000056e:    4308        .C      ORRS     r0,r0,r1
        0x10000570:    0601        ..      LSLS     r1,r0,#24
        0x10000572:    1b1b        ..      SUBS     r3,r3,r4
        0x10000574:    0a00        ..      LSRS     r0,r0,#8
        0x10000576:    1ddb        ..      ADDS     r3,r3,#7
        0x10000578:    d502        ..      BPL      0x10000580 ; _float_epilogue + 90
        0x1000057a:    2000        .       MOVS     r0,#0
        0x1000057c:    bc70        p.      POP      {r4-r6}
        0x1000057e:    4770        pG      BX       lr
        0x10000580:    05db        ..      LSLS     r3,r3,#23
        0x10000582:    1818        ..      ADDS     r0,r3,r0
        0x10000584:    1880        ..      ADDS     r0,r0,r2
        0x10000586:    2900        .)      CMP      r1,#0
        0x10000588:    daf8        ..      BGE      0x1000057c ; _float_epilogue + 86
        0x1000058a:    1c40        @.      ADDS     r0,r0,#1
        0x1000058c:    0049        I.      LSLS     r1,r1,#1
        0x1000058e:    d1f5        ..      BNE      0x1000057c ; _float_epilogue + 86
        0x10000590:    bc70        p.      POP      {r4-r6}
        0x10000592:    0840        @.      LSRS     r0,r0,#1
        0x10000594:    0040        @.      LSLS     r0,r0,#1
        0x10000596:    4770        pG      BX       lr
    .text
    _double_round
        0x10000598:    b510        ..      PUSH     {r4,lr}
        0x1000059a:    2b00        .+      CMP      r3,#0
        0x1000059c:    da08        ..      BGE      0x100005b0 ; _double_round + 24
        0x1000059e:    2400        .$      MOVS     r4,#0
        0x100005a0:    1c40        @.      ADDS     r0,r0,#1
        0x100005a2:    4161        aA      ADCS     r1,r1,r4
        0x100005a4:    1892        ..      ADDS     r2,r2,r2
        0x100005a6:    415b        [A      ADCS     r3,r3,r3
        0x100005a8:    431a        .C      ORRS     r2,r2,r3
        0x100005aa:    d101        ..      BNE      0x100005b0 ; _double_round + 24
        0x100005ac:    0840        @.      LSRS     r0,r0,#1
        0x100005ae:    0040        @.      LSLS     r0,r0,#1
        0x100005b0:    bd10        ..      POP      {r4,pc}
    _double_epilogue
        0x100005b2:    b5f0        ..      PUSH     {r4-r7,lr}
        0x100005b4:    b41f        ..      PUSH     {r0-r4}
        0x100005b6:    b082        ..      SUB      sp,sp,#8
        0x100005b8:    4605        .F      MOV      r5,r0
        0x100005ba:    000c        ..      MOVS     r4,r1
        0x100005bc:    d003        ..      BEQ      0x100005c6 ; _double_epilogue + 20
        0x100005be:    4608        .F      MOV      r0,r1
        0x100005c0:    f001fcc8    ....    BL       __ARM_clz ; 0x10001f54
        0x100005c4:    e002        ..      B        0x100005cc ; _double_epilogue + 26
        0x100005c6:    f001fcc5    ....    BL       __ARM_clz ; 0x10001f54
        0x100005ca:    3020         0      ADDS     r0,r0,#0x20
        0x100005cc:    4602        .F      MOV      r2,r0
        0x100005ce:    9000        ..      STR      r0,[sp,#0]
        0x100005d0:    4621        !F      MOV      r1,r4
        0x100005d2:    4628        (F      MOV      r0,r5
        0x100005d4:    f000f83f    ..?.    BL       __aeabi_llsl ; 0x10000656
        0x100005d8:    9b04        ..      LDR      r3,[sp,#0x10]
        0x100005da:    9a05        ..      LDR      r2,[sp,#0x14]
        0x100005dc:    4604        .F      MOV      r4,r0
        0x100005de:    460f        .F      MOV      r7,r1
        0x100005e0:    4318        .C      ORRS     r0,r0,r3
        0x100005e2:    4311        .C      ORRS     r1,r1,r2
        0x100005e4:    4308        .C      ORRS     r0,r0,r1
        0x100005e6:    d014        ..      BEQ      0x10000612 ; _double_epilogue + 96
        0x100005e8:    4618        .F      MOV      r0,r3
        0x100005ea:    4310        .C      ORRS     r0,r0,r2
        0x100005ec:    d01b        ..      BEQ      0x10000626 ; _double_epilogue + 116
        0x100005ee:    9800        ..      LDR      r0,[sp,#0]
        0x100005f0:    2140        @!      MOVS     r1,#0x40
        0x100005f2:    1a0a        ..      SUBS     r2,r1,r0
        0x100005f4:    4618        .F      MOV      r0,r3
        0x100005f6:    9905        ..      LDR      r1,[sp,#0x14]
        0x100005f8:    f7ffff7c    ..|.    BL       __aeabi_llsr ; 0x100004f4
        0x100005fc:    4605        .F      MOV      r5,r0
        0x100005fe:    460e        .F      MOV      r6,r1
        0x10000600:    9a00        ..      LDR      r2,[sp,#0]
        0x10000602:    9905        ..      LDR      r1,[sp,#0x14]
        0x10000604:    9804        ..      LDR      r0,[sp,#0x10]
        0x10000606:    f000f826    ..&.    BL       __aeabi_llsl ; 0x10000656
        0x1000060a:    4308        .C      ORRS     r0,r0,r1
        0x1000060c:    d005        ..      BEQ      0x1000061a ; _double_epilogue + 104
        0x1000060e:    2001        .       MOVS     r0,#1
        0x10000610:    e004        ..      B        0x1000061c ; _double_epilogue + 106
        0x10000612:    4620         F      MOV      r0,r4
        0x10000614:    4639        9F      MOV      r1,r7
        0x10000616:    b007        ..      ADD      sp,sp,#0x1c
        0x10000618:    bdf0        ..      POP      {r4-r7,pc}
        0x1000061a:    2000        .       MOVS     r0,#0
        0x1000061c:    17c1        ..      ASRS     r1,r0,#31
        0x1000061e:    4305        .C      ORRS     r5,r5,r0
        0x10000620:    430e        .C      ORRS     r6,r6,r1
        0x10000622:    432c        ,C      ORRS     r4,r4,r5
        0x10000624:    4337        7C      ORRS     r7,r7,r6
        0x10000626:    9900        ..      LDR      r1,[sp,#0]
        0x10000628:    980e        ..      LDR      r0,[sp,#0x38]
        0x1000062a:    0563        c.      LSLS     r3,r4,#21
        0x1000062c:    1a40        @.      SUBS     r0,r0,r1
        0x1000062e:    0579        y.      LSLS     r1,r7,#21
        0x10000630:    0ae4        ..      LSRS     r4,r4,#11
        0x10000632:    2200        ."      MOVS     r2,#0
        0x10000634:    430c        .C      ORRS     r4,r4,r1
        0x10000636:    0afd        ..      LSRS     r5,r7,#11
        0x10000638:    300a        .0      ADDS     r0,r0,#0xa
        0x1000063a:    d502        ..      BPL      0x10000642 ; _double_epilogue + 144
        0x1000063c:    2000        .       MOVS     r0,#0
        0x1000063e:    4601        .F      MOV      r1,r0
        0x10000640:    e7e9        ..      B        0x10000616 ; _double_epilogue + 100
        0x10000642:    0501        ..      LSLS     r1,r0,#20
        0x10000644:    1910        ..      ADDS     r0,r2,r4
        0x10000646:    4169        iA      ADCS     r1,r1,r5
        0x10000648:    9c0c        ..      LDR      r4,[sp,#0x30]
        0x1000064a:    9d0d        ..      LDR      r5,[sp,#0x34]
        0x1000064c:    1900        ..      ADDS     r0,r0,r4
        0x1000064e:    4169        iA      ADCS     r1,r1,r5
        0x10000650:    f7ffffa2    ....    BL       _double_round ; 0x10000598
        0x10000654:    e7df        ..      B        0x10000616 ; _double_epilogue + 100
    .text
    __aeabi_llsl
    _ll_shift_l
        0x10000656:    b510        ..      PUSH     {r4,lr}
        0x10000658:    2a20         *      CMP      r2,#0x20
        0x1000065a:    db04        ..      BLT      0x10000666 ; __aeabi_llsl + 16
        0x1000065c:    4601        .F      MOV      r1,r0
        0x1000065e:    3a20         :      SUBS     r2,r2,#0x20
        0x10000660:    4091        .@      LSLS     r1,r1,r2
        0x10000662:    2000        .       MOVS     r0,#0
        0x10000664:    bd10        ..      POP      {r4,pc}
        0x10000666:    4091        .@      LSLS     r1,r1,r2
        0x10000668:    2320         #      MOVS     r3,#0x20
        0x1000066a:    1a9c        ..      SUBS     r4,r3,r2
        0x1000066c:    4603        .F      MOV      r3,r0
        0x1000066e:    40e3        .@      LSRS     r3,r3,r4
        0x10000670:    4319        .C      ORRS     r1,r1,r3
        0x10000672:    4090        .@      LSLS     r0,r0,r2
        0x10000674:    bd10        ..      POP      {r4,pc}
        0x10000676:    0000        ..      MOVS     r0,r0
    $Ven$TT$L$$Flash_ConfigRCTC
        0x10000678:    b403        ..      PUSH     {r0,r1}
        0x1000067a:    4801        .H      LDR      r0,[pc,#4] ; [0x10000680] = 0x4021
        0x1000067c:    9001        ..      STR      r0,[sp,#4]
        0x1000067e:    bd01        ..      POP      {r0,pc}
    $d
        0x10000680:    00004021    !@..    DCD    16417
    $t
    i.ADT_StartTimer
    ADT_StartTimer
        0x10000684:    6800        .h      LDR      r0,[r0,#0]
        0x10000686:    6801        .h      LDR      r1,[r0,#0]
        0x10000688:    2201        ."      MOVS     r2,#1
        0x1000068a:    4311        .C      ORRS     r1,r1,r2
        0x1000068c:    6001        .`      STR      r1,[r0,#0]
        0x1000068e:    4770        pG      BX       lr
    i.Cmp_CLKConfig
    Cmp_CLKConfig
        0x10000690:    b570        p.      PUSH     {r4-r6,lr}
        0x10000692:    0789        ..      LSLS     r1,r1,#30
        0x10000694:    0ecc        ..      LSRS     r4,r1,#27
        0x10000696:    4b11        .K      LDR      r3,[pc,#68] ; [0x100006dc] = 0x40140040
        0x10000698:    2518        .%      MOVS     r5,#0x18
        0x1000069a:    4e11        .N      LDR      r6,[pc,#68] ; [0x100006e0] = 0xfffe001f
        0x1000069c:    0152        R.      LSLS     r2,r2,#5
        0x1000069e:    4911        .I      LDR      r1,[pc,#68] ; [0x100006e4] = 0x4000a000
        0x100006a0:    2800        .(      CMP      r0,#0
        0x100006a2:    d00f        ..      BEQ      0x100006c4 ; Cmp_CLKConfig + 52
        0x100006a4:    2801        .(      CMP      r0,#1
        0x100006a6:    d10c        ..      BNE      0x100006c2 ; Cmp_CLKConfig + 50
        0x100006a8:    6a58        Xj      LDR      r0,[r3,#0x24]
        0x100006aa:    43a8        .C      BICS     r0,r0,r5
        0x100006ac:    4320         C      ORRS     r0,r0,r4
        0x100006ae:    6258        Xb      STR      r0,[r3,#0x24]
        0x100006b0:    6a58        Xj      LDR      r0,[r3,#0x24]
        0x100006b2:    4030        0@      ANDS     r0,r0,r6
        0x100006b4:    4310        .C      ORRS     r0,r0,r2
        0x100006b6:    6258        Xb      STR      r0,[r3,#0x24]
        0x100006b8:    6808        .h      LDR      r0,[r1,#0]
        0x100006ba:    2201        ."      MOVS     r2,#1
        0x100006bc:    0452        R.      LSLS     r2,r2,#17
        0x100006be:    4310        .C      ORRS     r0,r0,r2
        0x100006c0:    6008        .`      STR      r0,[r1,#0]
        0x100006c2:    bd70        p.      POP      {r4-r6,pc}
        0x100006c4:    6a18        .j      LDR      r0,[r3,#0x20]
        0x100006c6:    43a8        .C      BICS     r0,r0,r5
        0x100006c8:    4320         C      ORRS     r0,r0,r4
        0x100006ca:    6218        .b      STR      r0,[r3,#0x20]
        0x100006cc:    6a18        .j      LDR      r0,[r3,#0x20]
        0x100006ce:    4030        0@      ANDS     r0,r0,r6
        0x100006d0:    4310        .C      ORRS     r0,r0,r2
        0x100006d2:    6218        .b      STR      r0,[r3,#0x20]
        0x100006d4:    6808        .h      LDR      r0,[r1,#0]
        0x100006d6:    2201        ."      MOVS     r2,#1
        0x100006d8:    0412        ..      LSLS     r2,r2,#16
        0x100006da:    e7f0        ..      B        0x100006be ; Cmp_CLKConfig + 46
    $d
        0x100006dc:    40140040    @..@    DCD    1075052608
        0x100006e0:    fffe001f    ....    DCD    4294836255
        0x100006e4:    4000a000    ...@    DCD    1073782784
    $t
    i.Cmp_Enable
    Cmp_Enable
        0x100006e8:    4906        .I      LDR      r1,[pc,#24] ; [0x10000704] = 0x4000d000
        0x100006ea:    2201        ."      MOVS     r2,#1
        0x100006ec:    2800        .(      CMP      r0,#0
        0x100006ee:    d005        ..      BEQ      0x100006fc ; Cmp_Enable + 20
        0x100006f0:    2801        .(      CMP      r0,#1
        0x100006f2:    d102        ..      BNE      0x100006fa ; Cmp_Enable + 18
        0x100006f4:    6b08        .k      LDR      r0,[r1,#0x30]
        0x100006f6:    4310        .C      ORRS     r0,r0,r2
        0x100006f8:    6308        .c      STR      r0,[r1,#0x30]
        0x100006fa:    4770        pG      BX       lr
        0x100006fc:    6ac8        .j      LDR      r0,[r1,#0x2c]
        0x100006fe:    4310        .C      ORRS     r0,r0,r2
        0x10000700:    62c8        .b      STR      r0,[r1,#0x2c]
        0x10000702:    4770        pG      BX       lr
    $d
        0x10000704:    4000d000    ...@    DCD    1073795072
    $t
    i.Cmp_Init
    Cmp_Init
        0x10000708:    b5f0        ..      PUSH     {r4-r7,lr}
        0x1000070a:    230f        .#      MOVS     r3,#0xf
        0x1000070c:    2507        .%      MOVS     r5,#7
        0x1000070e:    021b        ..      LSLS     r3,r3,#8
        0x10000710:    4a6a        jJ      LDR      r2,[pc,#424] ; [0x100008bc] = 0x4000d000
        0x10000712:    06ad        ..      LSLS     r5,r5,#26
        0x10000714:    011c        ..      LSLS     r4,r3,#4
        0x10000716:    2800        .(      CMP      r0,#0
        0x10000718:    d002        ..      BEQ      0x10000720 ; Cmp_Init + 24
        0x1000071a:    2801        .(      CMP      r0,#1
        0x1000071c:    d051        Q.      BEQ      0x100007c2 ; Cmp_Init + 186
        0x1000071e:    e0a2        ..      B        0x10000866 ; Cmp_Init + 350
        0x10000720:    6bd0        .k      LDR      r0,[r2,#0x3c]
        0x10000722:    894e        N.      LDRH     r6,[r1,#0xa]
        0x10000724:    0c00        ..      LSRS     r0,r0,#16
        0x10000726:    0400        ..      LSLS     r0,r0,#16
        0x10000728:    4330        0C      ORRS     r0,r0,r6
        0x1000072a:    63d0        .c      STR      r0,[r2,#0x3c]
        0x1000072c:    6bd0        .k      LDR      r0,[r2,#0x3c]
        0x1000072e:    43a8        .C      BICS     r0,r0,r5
        0x10000730:    788d        .x      LDRB     r5,[r1,#2]
        0x10000732:    076d        m.      LSLS     r5,r5,#29
        0x10000734:    08ed        ..      LSRS     r5,r5,#3
        0x10000736:    4328        (C      ORRS     r0,r0,r5
        0x10000738:    63d0        .c      STR      r0,[r2,#0x3c]
        0x1000073a:    6ad0        .j      LDR      r0,[r2,#0x2c]
        0x1000073c:    4398        .C      BICS     r0,r0,r3
        0x1000073e:    784b        Kx      LDRB     r3,[r1,#1]
        0x10000740:    071b        ..      LSLS     r3,r3,#28
        0x10000742:    0d1b        ..      LSRS     r3,r3,#20
        0x10000744:    4318        .C      ORRS     r0,r0,r3
        0x10000746:    62d0        .b      STR      r0,[r2,#0x2c]
        0x10000748:    6ad0        .j      LDR      r0,[r2,#0x2c]
        0x1000074a:    780b        .x      LDRB     r3,[r1,#0]
        0x1000074c:    43a0        .C      BICS     r0,r0,r4
        0x1000074e:    071b        ..      LSLS     r3,r3,#28
        0x10000750:    0c1b        ..      LSRS     r3,r3,#16
        0x10000752:    4318        .C      ORRS     r0,r0,r3
        0x10000754:    62d0        .b      STR      r0,[r2,#0x2c]
        0x10000756:    6ad0        .j      LDR      r0,[r2,#0x2c]
        0x10000758:    2302        .#      MOVS     r3,#2
        0x1000075a:    4398        .C      BICS     r0,r0,r3
        0x1000075c:    790b        .y      LDRB     r3,[r1,#4]
        0x1000075e:    07db        ..      LSLS     r3,r3,#31
        0x10000760:    0f9b        ..      LSRS     r3,r3,#30
        0x10000762:    4318        .C      ORRS     r0,r0,r3
        0x10000764:    62d0        .b      STR      r0,[r2,#0x2c]
        0x10000766:    6ad0        .j      LDR      r0,[r2,#0x2c]
        0x10000768:    231c        .#      MOVS     r3,#0x1c
        0x1000076a:    4398        .C      BICS     r0,r0,r3
        0x1000076c:    794b        Ky      LDRB     r3,[r1,#5]
        0x1000076e:    075b        [.      LSLS     r3,r3,#29
        0x10000770:    0edb        ..      LSRS     r3,r3,#27
        0x10000772:    4318        .C      ORRS     r0,r0,r3
        0x10000774:    62d0        .b      STR      r0,[r2,#0x2c]
        0x10000776:    6ad0        .j      LDR      r0,[r2,#0x2c]
        0x10000778:    2320         #      MOVS     r3,#0x20
        0x1000077a:    4398        .C      BICS     r0,r0,r3
        0x1000077c:    78cb        .x      LDRB     r3,[r1,#3]
        0x1000077e:    07db        ..      LSLS     r3,r3,#31
        0x10000780:    0e9b        ..      LSRS     r3,r3,#26
        0x10000782:    4318        .C      ORRS     r0,r0,r3
        0x10000784:    62d0        .b      STR      r0,[r2,#0x2c]
        0x10000786:    6ad0        .j      LDR      r0,[r2,#0x2c]
        0x10000788:    2340        @#      MOVS     r3,#0x40
        0x1000078a:    4398        .C      BICS     r0,r0,r3
        0x1000078c:    798b        .y      LDRB     r3,[r1,#6]
        0x1000078e:    07db        ..      LSLS     r3,r3,#31
        0x10000790:    0e5b        [.      LSRS     r3,r3,#25
        0x10000792:    4318        .C      ORRS     r0,r0,r3
        0x10000794:    62d0        .b      STR      r0,[r2,#0x2c]
        0x10000796:    6ad0        .j      LDR      r0,[r2,#0x2c]
        0x10000798:    2380        .#      MOVS     r3,#0x80
        0x1000079a:    4398        .C      BICS     r0,r0,r3
        0x1000079c:    7a0b        .z      LDRB     r3,[r1,#8]
        0x1000079e:    07db        ..      LSLS     r3,r3,#31
        0x100007a0:    0e1b        ..      LSRS     r3,r3,#24
        0x100007a2:    4318        .C      ORRS     r0,r0,r3
        0x100007a4:    62d0        .b      STR      r0,[r2,#0x2c]
        0x100007a6:    6ad0        .j      LDR      r0,[r2,#0x2c]
        0x100007a8:    2301        .#      MOVS     r3,#1
        0x100007aa:    041b        ..      LSLS     r3,r3,#16
        0x100007ac:    4318        .C      ORRS     r0,r0,r3
        0x100007ae:    62d0        .b      STR      r0,[r2,#0x2c]
        0x100007b0:    6ad0        .j      LDR      r0,[r2,#0x2c]
        0x100007b2:    005b        [.      LSLS     r3,r3,#1
        0x100007b4:    4318        .C      ORRS     r0,r0,r3
        0x100007b6:    62d0        .b      STR      r0,[r2,#0x2c]
        0x100007b8:    6bd0        .k      LDR      r0,[r2,#0x3c]
        0x100007ba:    039b        ..      LSLS     r3,r3,#14
        0x100007bc:    4318        .C      ORRS     r0,r0,r3
        0x100007be:    63d0        .c      STR      r0,[r2,#0x3c]
        0x100007c0:    e051        Q.      B        0x10000866 ; Cmp_Init + 350
        0x100007c2:    483e        >H      LDR      r0,[pc,#248] ; [0x100008bc] = 0x4000d000
        0x100007c4:    3040        @0      ADDS     r0,r0,#0x40
        0x100007c6:    6806        .h      LDR      r6,[r0,#0]
        0x100007c8:    894f        O.      LDRH     r7,[r1,#0xa]
        0x100007ca:    0c36        6.      LSRS     r6,r6,#16
        0x100007cc:    0436        6.      LSLS     r6,r6,#16
        0x100007ce:    433e        >C      ORRS     r6,r6,r7
        0x100007d0:    6006        .`      STR      r6,[r0,#0]
        0x100007d2:    6806        .h      LDR      r6,[r0,#0]
        0x100007d4:    43ae        .C      BICS     r6,r6,r5
        0x100007d6:    788d        .x      LDRB     r5,[r1,#2]
        0x100007d8:    076d        m.      LSLS     r5,r5,#29
        0x100007da:    08ed        ..      LSRS     r5,r5,#3
        0x100007dc:    432e        .C      ORRS     r6,r6,r5
        0x100007de:    6006        .`      STR      r6,[r0,#0]
        0x100007e0:    6b15        .k      LDR      r5,[r2,#0x30]
        0x100007e2:    439d        .C      BICS     r5,r5,r3
        0x100007e4:    784b        Kx      LDRB     r3,[r1,#1]
        0x100007e6:    071b        ..      LSLS     r3,r3,#28
        0x100007e8:    0d1b        ..      LSRS     r3,r3,#20
        0x100007ea:    431d        .C      ORRS     r5,r5,r3
        0x100007ec:    6315        .c      STR      r5,[r2,#0x30]
        0x100007ee:    6b13        .k      LDR      r3,[r2,#0x30]
        0x100007f0:    43a3        .C      BICS     r3,r3,r4
        0x100007f2:    780c        .x      LDRB     r4,[r1,#0]
        0x100007f4:    0724        $.      LSLS     r4,r4,#28
        0x100007f6:    0c24        $.      LSRS     r4,r4,#16
        0x100007f8:    4323        #C      ORRS     r3,r3,r4
        0x100007fa:    6313        .c      STR      r3,[r2,#0x30]
        0x100007fc:    6b13        .k      LDR      r3,[r2,#0x30]
        0x100007fe:    2402        .$      MOVS     r4,#2
        0x10000800:    43a3        .C      BICS     r3,r3,r4
        0x10000802:    790c        .y      LDRB     r4,[r1,#4]
        0x10000804:    07e4        ..      LSLS     r4,r4,#31
        0x10000806:    0fa4        ..      LSRS     r4,r4,#30
        0x10000808:    4323        #C      ORRS     r3,r3,r4
        0x1000080a:    6313        .c      STR      r3,[r2,#0x30]
        0x1000080c:    6b13        .k      LDR      r3,[r2,#0x30]
        0x1000080e:    241c        .$      MOVS     r4,#0x1c
        0x10000810:    43a3        .C      BICS     r3,r3,r4
        0x10000812:    794c        Ly      LDRB     r4,[r1,#5]
        0x10000814:    0764        d.      LSLS     r4,r4,#29
        0x10000816:    0ee4        ..      LSRS     r4,r4,#27
        0x10000818:    4323        #C      ORRS     r3,r3,r4
        0x1000081a:    6313        .c      STR      r3,[r2,#0x30]
        0x1000081c:    6b13        .k      LDR      r3,[r2,#0x30]
        0x1000081e:    2420         $      MOVS     r4,#0x20
        0x10000820:    43a3        .C      BICS     r3,r3,r4
        0x10000822:    78cc        .x      LDRB     r4,[r1,#3]
        0x10000824:    07e4        ..      LSLS     r4,r4,#31
        0x10000826:    0ea4        ..      LSRS     r4,r4,#26
        0x10000828:    4323        #C      ORRS     r3,r3,r4
        0x1000082a:    6313        .c      STR      r3,[r2,#0x30]
        0x1000082c:    6b13        .k      LDR      r3,[r2,#0x30]
        0x1000082e:    2440        @$      MOVS     r4,#0x40
        0x10000830:    43a3        .C      BICS     r3,r3,r4
        0x10000832:    798c        .y      LDRB     r4,[r1,#6]
        0x10000834:    07e4        ..      LSLS     r4,r4,#31
        0x10000836:    0e64        d.      LSRS     r4,r4,#25
        0x10000838:    4323        #C      ORRS     r3,r3,r4
        0x1000083a:    6313        .c      STR      r3,[r2,#0x30]
        0x1000083c:    6b13        .k      LDR      r3,[r2,#0x30]
        0x1000083e:    2480        .$      MOVS     r4,#0x80
        0x10000840:    43a3        .C      BICS     r3,r3,r4
        0x10000842:    7a0c        .z      LDRB     r4,[r1,#8]
        0x10000844:    07e4        ..      LSLS     r4,r4,#31
        0x10000846:    0e24        $.      LSRS     r4,r4,#24
        0x10000848:    4323        #C      ORRS     r3,r3,r4
        0x1000084a:    6313        .c      STR      r3,[r2,#0x30]
        0x1000084c:    6b13        .k      LDR      r3,[r2,#0x30]
        0x1000084e:    2401        .$      MOVS     r4,#1
        0x10000850:    0424        $.      LSLS     r4,r4,#16
        0x10000852:    4323        #C      ORRS     r3,r3,r4
        0x10000854:    6313        .c      STR      r3,[r2,#0x30]
        0x10000856:    6b13        .k      LDR      r3,[r2,#0x30]
        0x10000858:    0064        d.      LSLS     r4,r4,#1
        0x1000085a:    4323        #C      ORRS     r3,r3,r4
        0x1000085c:    6313        .c      STR      r3,[r2,#0x30]
        0x1000085e:    6802        .h      LDR      r2,[r0,#0]
        0x10000860:    0643        C.      LSLS     r3,r0,#25
        0x10000862:    431a        .C      ORRS     r2,r2,r3
        0x10000864:    6002        .`      STR      r2,[r0,#0]
        0x10000866:    780c        .x      LDRB     r4,[r1,#0]
        0x10000868:    23ff        .#      MOVS     r3,#0xff
        0x1000086a:    2201        ."      MOVS     r2,#1
        0x1000086c:    4814        .H      LDR      r0,[pc,#80] ; [0x100008c0] = 0x40150000
        0x1000086e:    04db        ..      LSLS     r3,r3,#19
        0x10000870:    2c07        .,      CMP      r4,#7
        0x10000872:    d80f        ..      BHI      0x10000894 ; Cmp_Init + 396
        0x10000874:    6a85        .j      LDR      r5,[r0,#0x28]
        0x10000876:    4616        .F      MOV      r6,r2
        0x10000878:    016d        m.      LSLS     r5,r5,#5
        0x1000087a:    0e2d        -.      LSRS     r5,r5,#24
        0x1000087c:    40a6        .@      LSLS     r6,r6,r4
        0x1000087e:    4335        5C      ORRS     r5,r5,r6
        0x10000880:    062c        ,.      LSLS     r4,r5,#24
        0x10000882:    0965        e.      LSRS     r5,r4,#5
        0x10000884:    6a84        .j      LDR      r4,[r0,#0x28]
        0x10000886:    439c        .C      BICS     r4,r4,r3
        0x10000888:    432c        ,C      ORRS     r4,r4,r5
        0x1000088a:    6284        .b      STR      r4,[r0,#0x28]
        0x1000088c:    6a84        .j      LDR      r4,[r0,#0x28]
        0x1000088e:    250f        .%      MOVS     r5,#0xf
        0x10000890:    432c        ,C      ORRS     r4,r4,r5
        0x10000892:    6284        .b      STR      r4,[r0,#0x28]
        0x10000894:    7849        Ix      LDRB     r1,[r1,#1]
        0x10000896:    2907        .)      CMP      r1,#7
        0x10000898:    d80e        ..      BHI      0x100008b8 ; Cmp_Init + 432
        0x1000089a:    6a84        .j      LDR      r4,[r0,#0x28]
        0x1000089c:    0164        d.      LSLS     r4,r4,#5
        0x1000089e:    0e24        $.      LSRS     r4,r4,#24
        0x100008a0:    408a        .@      LSLS     r2,r2,r1
        0x100008a2:    4314        .C      ORRS     r4,r4,r2
        0x100008a4:    0621        !.      LSLS     r1,r4,#24
        0x100008a6:    094a        J.      LSRS     r2,r1,#5
        0x100008a8:    6a81        .j      LDR      r1,[r0,#0x28]
        0x100008aa:    4399        .C      BICS     r1,r1,r3
        0x100008ac:    4311        .C      ORRS     r1,r1,r2
        0x100008ae:    6281        .b      STR      r1,[r0,#0x28]
        0x100008b0:    6a81        .j      LDR      r1,[r0,#0x28]
        0x100008b2:    22f0        ."      MOVS     r2,#0xf0
        0x100008b4:    4311        .C      ORRS     r1,r1,r2
        0x100008b6:    6281        .b      STR      r1,[r0,#0x28]
        0x100008b8:    bdf0        ..      POP      {r4-r7,pc}
    $d
        0x100008ba:    0000        ..      DCW    0
        0x100008bc:    4000d000    ...@    DCD    1073795072
        0x100008c0:    40150000    ...@    DCD    1075118080
    $t
    i.Cmp_VrefConfig
    Cmp_VrefConfig
        0x100008c4:    b570        p.      PUSH     {r4-r6,lr}
        0x100008c6:    065d        ].      LSLS     r5,r3,#25
        0x100008c8:    0e6d        m.      LSRS     r5,r5,#25
        0x100008ca:    4c25        %L      LDR      r4,[pc,#148] ; [0x10000960] = 0x4000d000
        0x100008cc:    2800        .(      CMP      r0,#0
        0x100008ce:    d002        ..      BEQ      0x100008d6 ; Cmp_VrefConfig + 18
        0x100008d0:    2801        .(      CMP      r0,#1
        0x100008d2:    d01e        ..      BEQ      0x10000912 ; Cmp_VrefConfig + 78
        0x100008d4:    e038        8.      B        0x10000948 ; Cmp_VrefConfig + 132
        0x100008d6:    6b60        `k      LDR      r0,[r4,#0x34]
        0x100008d8:    2601        .&      MOVS     r6,#1
        0x100008da:    4330        0C      ORRS     r0,r0,r6
        0x100008dc:    6360        `c      STR      r0,[r4,#0x34]
        0x100008de:    2002        .       MOVS     r0,#2
        0x100008e0:    2a00        .*      CMP      r2,#0
        0x100008e2:    d002        ..      BEQ      0x100008ea ; Cmp_VrefConfig + 38
        0x100008e4:    2a01        .*      CMP      r2,#1
        0x100008e6:    d00a        ..      BEQ      0x100008fe ; Cmp_VrefConfig + 58
        0x100008e8:    e02e        ..      B        0x10000948 ; Cmp_VrefConfig + 132
        0x100008ea:    6b62        bk      LDR      r2,[r4,#0x34]
        0x100008ec:    4382        .C      BICS     r2,r2,r0
        0x100008ee:    6362        bc      STR      r2,[r4,#0x34]
        0x100008f0:    6ba0        .k      LDR      r0,[r4,#0x38]
        0x100008f2:    227f        ."      MOVS     r2,#0x7f
        0x100008f4:    0612        ..      LSLS     r2,r2,#24
        0x100008f6:    4390        .C      BICS     r0,r0,r2
        0x100008f8:    065a        Z.      LSLS     r2,r3,#25
        0x100008fa:    0852        R.      LSRS     r2,r2,#1
        0x100008fc:    e007        ..      B        0x1000090e ; Cmp_VrefConfig + 74
        0x100008fe:    6b62        bk      LDR      r2,[r4,#0x34]
        0x10000900:    4302        .C      ORRS     r2,r2,r0
        0x10000902:    6362        bc      STR      r2,[r4,#0x34]
        0x10000904:    6ba0        .k      LDR      r0,[r4,#0x38]
        0x10000906:    227f        ."      MOVS     r2,#0x7f
        0x10000908:    0412        ..      LSLS     r2,r2,#16
        0x1000090a:    4390        .C      BICS     r0,r0,r2
        0x1000090c:    042a        *.      LSLS     r2,r5,#16
        0x1000090e:    4310        .C      ORRS     r0,r0,r2
        0x10000910:    e019        ..      B        0x10000946 ; Cmp_VrefConfig + 130
        0x10000912:    6b60        `k      LDR      r0,[r4,#0x34]
        0x10000914:    2304        .#      MOVS     r3,#4
        0x10000916:    4318        .C      ORRS     r0,r0,r3
        0x10000918:    6360        `c      STR      r0,[r4,#0x34]
        0x1000091a:    2008        .       MOVS     r0,#8
        0x1000091c:    2a00        .*      CMP      r2,#0
        0x1000091e:    d002        ..      BEQ      0x10000926 ; Cmp_VrefConfig + 98
        0x10000920:    2a01        .*      CMP      r2,#1
        0x10000922:    d009        ..      BEQ      0x10000938 ; Cmp_VrefConfig + 116
        0x10000924:    e010        ..      B        0x10000948 ; Cmp_VrefConfig + 132
        0x10000926:    6b62        bk      LDR      r2,[r4,#0x34]
        0x10000928:    4382        .C      BICS     r2,r2,r0
        0x1000092a:    6362        bc      STR      r2,[r4,#0x34]
        0x1000092c:    6ba0        .k      LDR      r0,[r4,#0x38]
        0x1000092e:    227f        ."      MOVS     r2,#0x7f
        0x10000930:    0212        ..      LSLS     r2,r2,#8
        0x10000932:    4390        .C      BICS     r0,r0,r2
        0x10000934:    022a        *.      LSLS     r2,r5,#8
        0x10000936:    e7ea        ..      B        0x1000090e ; Cmp_VrefConfig + 74
        0x10000938:    6b62        bk      LDR      r2,[r4,#0x34]
        0x1000093a:    4302        .C      ORRS     r2,r2,r0
        0x1000093c:    6362        bc      STR      r2,[r4,#0x34]
        0x1000093e:    6ba0        .k      LDR      r0,[r4,#0x38]
        0x10000940:    09c0        ..      LSRS     r0,r0,#7
        0x10000942:    01c0        ..      LSLS     r0,r0,#7
        0x10000944:    4328        (C      ORRS     r0,r0,r5
        0x10000946:    63a0        .c      STR      r0,[r4,#0x38]
        0x10000948:    6b60        `k      LDR      r0,[r4,#0x34]
        0x1000094a:    2210        ."      MOVS     r2,#0x10
        0x1000094c:    4310        .C      ORRS     r0,r0,r2
        0x1000094e:    6360        `c      STR      r0,[r4,#0x34]
        0x10000950:    6b60        `k      LDR      r0,[r4,#0x34]
        0x10000952:    2260        `"      MOVS     r2,#0x60
        0x10000954:    0789        ..      LSLS     r1,r1,#30
        0x10000956:    4390        .C      BICS     r0,r0,r2
        0x10000958:    0e49        I.      LSRS     r1,r1,#25
        0x1000095a:    4308        .C      ORRS     r0,r0,r1
        0x1000095c:    6360        `c      STR      r0,[r4,#0x34]
        0x1000095e:    bd70        p.      POP      {r4-r6,pc}
    $d
        0x10000960:    4000d000    ...@    DCD    1073795072
    $t
    i.CopyDataRWtoImage
    CopyDataRWtoImage
        0x10000964:    480b        .H      LDR      r0,[pc,#44] ; [0x10000994] = 0x140
        0x10000966:    4a09        .J      LDR      r2,[pc,#36] ; [0x1000098c] = 0x4020
        0x10000968:    4909        .I      LDR      r1,[pc,#36] ; [0x10000990] = 0x1000242c
        0x1000096a:    b510        ..      PUSH     {r4,lr}
        0x1000096c:    0880        ..      LSRS     r0,r0,#2
        0x1000096e:    428a        .B      CMP      r2,r1
        0x10000970:    d108        ..      BNE      0x10000984 ; CopyDataRWtoImage + 32
        0x10000972:    bd10        ..      POP      {r4,pc}
        0x10000974:    0083        ..      LSLS     r3,r0,#2
        0x10000976:    185c        \.      ADDS     r4,r3,r1
        0x10000978:    3c80        .<      SUBS     r4,r4,#0x80
        0x1000097a:    189b        ..      ADDS     r3,r3,r2
        0x1000097c:    3b80        .;      SUBS     r3,r3,#0x80
        0x1000097e:    6fe4        .o      LDR      r4,[r4,#0x7c]
        0x10000980:    1e40        @.      SUBS     r0,r0,#1
        0x10000982:    67dc        .g      STR      r4,[r3,#0x7c]
        0x10000984:    2800        .(      CMP      r0,#0
        0x10000986:    d1f5        ..      BNE      0x10000974 ; CopyDataRWtoImage + 16
        0x10000988:    bd10        ..      POP      {r4,pc}
    $d
        0x1000098a:    0000        ..      DCW    0
        0x1000098c:    00004020     @..    DCD    16416
        0x10000990:    1000242c    ,$..    DCD    268444716
        0x10000994:    00000140    @...    DCD    320
    $t
    i.DMA_Init
    DMA_Init
        0x10000998:    b5f0        ..      PUSH     {r4-r7,lr}
        0x1000099a:    2100        .!      MOVS     r1,#0
        0x1000099c:    4a0d        .J      LDR      r2,[pc,#52] ; [0x100009d4] = 0x40200100
        0x1000099e:    4608        .F      MOV      r0,r1
        0x100009a0:    008b        ..      LSLS     r3,r1,#2
        0x100009a2:    189b        ..      ADDS     r3,r3,r2
        0x100009a4:    1c49        I.      ADDS     r1,r1,#1
        0x100009a6:    6018        .`      STR      r0,[r3,#0]
        0x100009a8:    2920         )      CMP      r1,#0x20
        0x100009aa:    dbf9        ..      BLT      0x100009a0 ; DMA_Init + 8
        0x100009ac:    4c0a        .L      LDR      r4,[pc,#40] ; [0x100009d8] = 0x40200000
        0x100009ae:    2100        .!      MOVS     r1,#0
        0x100009b0:    00e6        ..      LSLS     r6,r4,#3
        0x100009b2:    4d0a        .M      LDR      r5,[pc,#40] ; [0x100009dc] = 0x40200200
        0x100009b4:    2701        .'      MOVS     r7,#1
        0x100009b6:    008a        ..      LSLS     r2,r1,#2
        0x100009b8:    1913        ..      ADDS     r3,r2,r4
        0x100009ba:    010a        ..      LSLS     r2,r1,#4
        0x100009bc:    1952        R.      ADDS     r2,r2,r5
        0x100009be:    601e        .`      STR      r6,[r3,#0]
        0x100009c0:    6010        .`      STR      r0,[r2,#0]
        0x100009c2:    6050        P`      STR      r0,[r2,#4]
        0x100009c4:    6090        .`      STR      r0,[r2,#8]
        0x100009c6:    60d0        .`      STR      r0,[r2,#0xc]
        0x100009c8:    1c49        I.      ADDS     r1,r1,#1
        0x100009ca:    641f        .d      STR      r7,[r3,#0x40]
        0x100009cc:    2908        .)      CMP      r1,#8
        0x100009ce:    dbf2        ..      BLT      0x100009b6 ; DMA_Init + 30
        0x100009d0:    bdf0        ..      POP      {r4-r7,pc}
    $d
        0x100009d2:    0000        ..      DCW    0
        0x100009d4:    40200100    .. @    DCD    1075839232
        0x100009d8:    40200000    .. @    DCD    1075838976
        0x100009dc:    40200200    .. @    DCD    1075839488
    $t
    i.DMA_StartChannel
    DMA_StartChannel
        0x100009e0:    0081        ..      LSLS     r1,r0,#2
        0x100009e2:    4804        .H      LDR      r0,[pc,#16] ; [0x100009f4] = 0x40200000
        0x100009e4:    2201        ."      MOVS     r2,#1
        0x100009e6:    1808        ..      ADDS     r0,r1,r0
        0x100009e8:    6801        .h      LDR      r1,[r0,#0]
        0x100009ea:    07d2        ..      LSLS     r2,r2,#31
        0x100009ec:    4311        .C      ORRS     r1,r1,r2
        0x100009ee:    6001        .`      STR      r1,[r0,#0]
        0x100009f0:    4770        pG      BX       lr
    $d
        0x100009f2:    0000        ..      DCW    0
        0x100009f4:    40200000    .. @    DCD    1075838976
    $t
    i.DelayForCommandExeDone
    DelayForCommandExeDone
        0x100009f8:    bf00        ..      NOP      
        0x100009fa:    bf00        ..      NOP      
        0x100009fc:    bf00        ..      NOP      
        0x100009fe:    bf00        ..      NOP      
        0x10000a00:    bf00        ..      NOP      
        0x10000a02:    bf00        ..      NOP      
        0x10000a04:    bf00        ..      NOP      
        0x10000a06:    bf00        ..      NOP      
        0x10000a08:    bf00        ..      NOP      
        0x10000a0a:    bf00        ..      NOP      
        0x10000a0c:    bf00        ..      NOP      
        0x10000a0e:    bf00        ..      NOP      
        0x10000a10:    bf00        ..      NOP      
        0x10000a12:    bf00        ..      NOP      
        0x10000a14:    bf00        ..      NOP      
        0x10000a16:    bf00        ..      NOP      
        0x10000a18:    4770        pG      BX       lr
    i.GPIO_ClearBits
    GPIO_ClearBits
        0x10000a1a:    b51c        ..      PUSH     {r2-r4,lr}
        0x10000a1c:    460a        .F      MOV      r2,r1
        0x10000a1e:    4601        .F      MOV      r1,r0
        0x10000a20:    4668        hF      MOV      r0,sp
        0x10000a22:    f000f8b1    ....    BL       GPIO_RegisterMap ; 0x10000b88
        0x10000a26:    9800        ..      LDR      r0,[sp,#0]
        0x10000a28:    9901        ..      LDR      r1,[sp,#4]
        0x10000a2a:    2800        .(      CMP      r0,#0
        0x10000a2c:    d004        ..      BEQ      0x10000a38 ; GPIO_ClearBits + 30
        0x10000a2e:    6842        Bh      LDR      r2,[r0,#4]
        0x10000a30:    2301        .#      MOVS     r3,#1
        0x10000a32:    408b        .@      LSLS     r3,r3,r1
        0x10000a34:    439a        .C      BICS     r2,r2,r3
        0x10000a36:    6042        B`      STR      r2,[r0,#4]
        0x10000a38:    bd1c        ..      POP      {r2-r4,pc}
    i.GPIO_ClrAFMode
    GPIO_ClrAFMode
        0x10000a3a:    b510        ..      PUSH     {r4,lr}
        0x10000a3c:    f000f87a    ..z.    BL       GPIO_PinMuxAdrMap ; 0x10000b34
        0x10000a40:    2800        .(      CMP      r0,#0
        0x10000a42:    d005        ..      BEQ      0x10000a50 ; GPIO_ClrAFMode + 22
        0x10000a44:    6801        .h      LDR      r1,[r0,#0]
        0x10000a46:    2207        ."      MOVS     r2,#7
        0x10000a48:    0212        ..      LSLS     r2,r2,#8
        0x10000a4a:    4391        .C      BICS     r1,r1,r2
        0x10000a4c:    6001        .`      STR      r1,[r0,#0]
        0x10000a4e:    2001        .       MOVS     r0,#1
        0x10000a50:    bd10        ..      POP      {r4,pc}
    i.GPIO_Init
    GPIO_Init
        0x10000a52:    b5fe        ..      PUSH     {r1-r7,lr}
        0x10000a54:    4604        .F      MOV      r4,r0
        0x10000a56:    7842        Bx      LDRB     r2,[r0,#1]
        0x10000a58:    7801        .x      LDRB     r1,[r0,#0]
        0x10000a5a:    4668        hF      MOV      r0,sp
        0x10000a5c:    f000f894    ....    BL       GPIO_RegisterMap ; 0x10000b88
        0x10000a60:    7861        ax      LDRB     r1,[r4,#1]
        0x10000a62:    7820         x      LDRB     r0,[r4,#0]
        0x10000a64:    9e01        ..      LDR      r6,[sp,#4]
        0x10000a66:    9d00        ..      LDR      r5,[sp,#0]
        0x10000a68:    f000f864    ..d.    BL       GPIO_PinMuxAdrMap ; 0x10000b34
        0x10000a6c:    2d00        .-      CMP      r5,#0
        0x10000a6e:    d05f        _.      BEQ      0x10000b30 ; GPIO_Init + 222
        0x10000a70:    2800        .(      CMP      r0,#0
        0x10000a72:    d05d        ].      BEQ      0x10000b30 ; GPIO_Init + 222
        0x10000a74:    78a1        .x      LDRB     r1,[r4,#2]
        0x10000a76:    2902        .)      CMP      r1,#2
        0x10000a78:    d002        ..      BEQ      0x10000a80 ; GPIO_Init + 46
        0x10000a7a:    2901        .)      CMP      r1,#1
        0x10000a7c:    d004        ..      BEQ      0x10000a88 ; GPIO_Init + 54
        0x10000a7e:    e006        ..      B        0x10000a8e ; GPIO_Init + 60
        0x10000a80:    2101        .!      MOVS     r1,#1
        0x10000a82:    40b1        .@      LSLS     r1,r1,r6
        0x10000a84:    6129        )a      STR      r1,[r5,#0x10]
        0x10000a86:    e002        ..      B        0x10000a8e ; GPIO_Init + 60
        0x10000a88:    2101        .!      MOVS     r1,#1
        0x10000a8a:    40b1        .@      LSLS     r1,r1,r6
        0x10000a8c:    6169        ia      STR      r1,[r5,#0x14]
        0x10000a8e:    2101        .!      MOVS     r1,#1
        0x10000a90:    78e3        .x      LDRB     r3,[r4,#3]
        0x10000a92:    05c9        ..      LSLS     r1,r1,#23
        0x10000a94:    104a        J.      ASRS     r2,r1,#1
        0x10000a96:    2b01        .+      CMP      r3,#1
        0x10000a98:    d105        ..      BNE      0x10000aa6 ; GPIO_Init + 84
        0x10000a9a:    6803        .h      LDR      r3,[r0,#0]
        0x10000a9c:    430b        .C      ORRS     r3,r3,r1
        0x10000a9e:    6003        .`      STR      r3,[r0,#0]
        0x10000aa0:    6803        .h      LDR      r3,[r0,#0]
        0x10000aa2:    4393        .C      BICS     r3,r3,r2
        0x10000aa4:    6003        .`      STR      r3,[r0,#0]
        0x10000aa6:    78e3        .x      LDRB     r3,[r4,#3]
        0x10000aa8:    2b02        .+      CMP      r3,#2
        0x10000aaa:    d105        ..      BNE      0x10000ab8 ; GPIO_Init + 102
        0x10000aac:    6803        .h      LDR      r3,[r0,#0]
        0x10000aae:    438b        .C      BICS     r3,r3,r1
        0x10000ab0:    6003        .`      STR      r3,[r0,#0]
        0x10000ab2:    6803        .h      LDR      r3,[r0,#0]
        0x10000ab4:    4313        .C      ORRS     r3,r3,r2
        0x10000ab6:    6003        .`      STR      r3,[r0,#0]
        0x10000ab8:    78e3        .x      LDRB     r3,[r4,#3]
        0x10000aba:    2b03        .+      CMP      r3,#3
        0x10000abc:    d105        ..      BNE      0x10000aca ; GPIO_Init + 120
        0x10000abe:    6803        .h      LDR      r3,[r0,#0]
        0x10000ac0:    438b        .C      BICS     r3,r3,r1
        0x10000ac2:    6003        .`      STR      r3,[r0,#0]
        0x10000ac4:    6801        .h      LDR      r1,[r0,#0]
        0x10000ac6:    4391        .C      BICS     r1,r1,r2
        0x10000ac8:    6001        .`      STR      r1,[r0,#0]
        0x10000aca:    2101        .!      MOVS     r1,#1
        0x10000acc:    0409        ..      LSLS     r1,r1,#16
        0x10000ace:    7927        'y      LDRB     r7,[r4,#4]
        0x10000ad0:    008a        ..      LSLS     r2,r1,#2
        0x10000ad2:    004b        K.      LSLS     r3,r1,#1
        0x10000ad4:    2f00        ./      CMP      r7,#0
        0x10000ad6:    d108        ..      BNE      0x10000aea ; GPIO_Init + 152
        0x10000ad8:    6807        .h      LDR      r7,[r0,#0]
        0x10000ada:    430f        .C      ORRS     r7,r7,r1
        0x10000adc:    6007        .`      STR      r7,[r0,#0]
        0x10000ade:    6807        .h      LDR      r7,[r0,#0]
        0x10000ae0:    4317        .C      ORRS     r7,r7,r2
        0x10000ae2:    6007        .`      STR      r7,[r0,#0]
        0x10000ae4:    6807        .h      LDR      r7,[r0,#0]
        0x10000ae6:    439f        .C      BICS     r7,r7,r3
        0x10000ae8:    6007        .`      STR      r7,[r0,#0]
        0x10000aea:    7927        'y      LDRB     r7,[r4,#4]
        0x10000aec:    2f01        ./      CMP      r7,#1
        0x10000aee:    d108        ..      BNE      0x10000b02 ; GPIO_Init + 176
        0x10000af0:    6807        .h      LDR      r7,[r0,#0]
        0x10000af2:    430f        .C      ORRS     r7,r7,r1
        0x10000af4:    6007        .`      STR      r7,[r0,#0]
        0x10000af6:    6807        .h      LDR      r7,[r0,#0]
        0x10000af8:    4397        .C      BICS     r7,r7,r2
        0x10000afa:    6007        .`      STR      r7,[r0,#0]
        0x10000afc:    6807        .h      LDR      r7,[r0,#0]
        0x10000afe:    431f        .C      ORRS     r7,r7,r3
        0x10000b00:    6007        .`      STR      r7,[r0,#0]
        0x10000b02:    7927        'y      LDRB     r7,[r4,#4]
        0x10000b04:    2f02        ./      CMP      r7,#2
        0x10000b06:    d108        ..      BNE      0x10000b1a ; GPIO_Init + 200
        0x10000b08:    6807        .h      LDR      r7,[r0,#0]
        0x10000b0a:    438f        .C      BICS     r7,r7,r1
        0x10000b0c:    6007        .`      STR      r7,[r0,#0]
        0x10000b0e:    6801        .h      LDR      r1,[r0,#0]
        0x10000b10:    4391        .C      BICS     r1,r1,r2
        0x10000b12:    6001        .`      STR      r1,[r0,#0]
        0x10000b14:    6801        .h      LDR      r1,[r0,#0]
        0x10000b16:    4399        .C      BICS     r1,r1,r3
        0x10000b18:    6001        .`      STR      r1,[r0,#0]
        0x10000b1a:    78e0        .x      LDRB     r0,[r4,#3]
        0x10000b1c:    2804        .(      CMP      r0,#4
        0x10000b1e:    d107        ..      BNE      0x10000b30 ; GPIO_Init + 222
        0x10000b20:    6929        )i      LDR      r1,[r5,#0x10]
        0x10000b22:    2001        .       MOVS     r0,#1
        0x10000b24:    40b0        .@      LSLS     r0,r0,r6
        0x10000b26:    4381        .C      BICS     r1,r1,r0
        0x10000b28:    6129        )a      STR      r1,[r5,#0x10]
        0x10000b2a:    6969        ii      LDR      r1,[r5,#0x14]
        0x10000b2c:    4381        .C      BICS     r1,r1,r0
        0x10000b2e:    6169        ia      STR      r1,[r5,#0x14]
        0x10000b30:    bdfe        ..      POP      {r1-r7,pc}
        0x10000b32:    0000        ..      MOVS     r0,r0
    i.GPIO_PinMuxAdrMap
    GPIO_PinMuxAdrMap
        0x10000b34:    4603        .F      MOV      r3,r0
        0x10000b36:    2000        .       MOVS     r0,#0
        0x10000b38:    008a        ..      LSLS     r2,r1,#2
        0x10000b3a:    2b01        .+      CMP      r3,#1
        0x10000b3c:    d009        ..      BEQ      0x10000b52 ; GPIO_PinMuxAdrMap + 30
        0x10000b3e:    2b02        .+      CMP      r3,#2
        0x10000b40:    d011        ..      BEQ      0x10000b66 ; GPIO_PinMuxAdrMap + 50
        0x10000b42:    2b03        .+      CMP      r3,#3
        0x10000b44:    d014        ..      BEQ      0x10000b70 ; GPIO_PinMuxAdrMap + 60
        0x10000b46:    2b04        .+      CMP      r3,#4
        0x10000b48:    d10c        ..      BNE      0x10000b64 ; GPIO_PinMuxAdrMap + 48
        0x10000b4a:    2901        .)      CMP      r1,#1
        0x10000b4c:    d815        ..      BHI      0x10000b7a ; GPIO_PinMuxAdrMap + 70
        0x10000b4e:    480c        .H      LDR      r0,[pc,#48] ; [0x10000b80] = 0x40005060
        0x10000b50:    e007        ..      B        0x10000b62 ; GPIO_PinMuxAdrMap + 46
        0x10000b52:    2901        .)      CMP      r1,#1
        0x10000b54:    d802        ..      BHI      0x10000b5c ; GPIO_PinMuxAdrMap + 40
        0x10000b56:    480a        .H      LDR      r0,[pc,#40] ; [0x10000b80] = 0x40005060
        0x10000b58:    3860        `8      SUBS     r0,r0,#0x60
        0x10000b5a:    e002        ..      B        0x10000b62 ; GPIO_PinMuxAdrMap + 46
        0x10000b5c:    2907        .)      CMP      r1,#7
        0x10000b5e:    d80c        ..      BHI      0x10000b7a ; GPIO_PinMuxAdrMap + 70
        0x10000b60:    4808        .H      LDR      r0,[pc,#32] ; [0x10000b84] = 0x40008ff8
        0x10000b62:    1810        ..      ADDS     r0,r2,r0
        0x10000b64:    4770        pG      BX       lr
        0x10000b66:    2907        .)      CMP      r1,#7
        0x10000b68:    d807        ..      BHI      0x10000b7a ; GPIO_PinMuxAdrMap + 70
        0x10000b6a:    4805        .H      LDR      r0,[pc,#20] ; [0x10000b80] = 0x40005060
        0x10000b6c:    3840        @8      SUBS     r0,r0,#0x40
        0x10000b6e:    e7f8        ..      B        0x10000b62 ; GPIO_PinMuxAdrMap + 46
        0x10000b70:    2907        .)      CMP      r1,#7
        0x10000b72:    d802        ..      BHI      0x10000b7a ; GPIO_PinMuxAdrMap + 70
        0x10000b74:    4802        .H      LDR      r0,[pc,#8] ; [0x10000b80] = 0x40005060
        0x10000b76:    3820         8      SUBS     r0,r0,#0x20
        0x10000b78:    e7f3        ..      B        0x10000b62 ; GPIO_PinMuxAdrMap + 46
        0x10000b7a:    2000        .       MOVS     r0,#0
        0x10000b7c:    4770        pG      BX       lr
    $d
        0x10000b7e:    0000        ..      DCW    0
        0x10000b80:    40005060    `P.@    DCD    1073762400
        0x10000b84:    40008ff8    ...@    DCD    1073778680
    $t
    i.GPIO_RegisterMap
    GPIO_RegisterMap
        0x10000b88:    b570        p.      PUSH     {r4-r6,lr}
        0x10000b8a:    2400        .$      MOVS     r4,#0
        0x10000b8c:    2601        .&      MOVS     r6,#1
        0x10000b8e:    07b6        ..      LSLS     r6,r6,#30
        0x10000b90:    4623        #F      MOV      r3,r4
        0x10000b92:    2901        .)      CMP      r1,#1
        0x10000b94:    d009        ..      BEQ      0x10000baa ; GPIO_RegisterMap + 34
        0x10000b96:    4615        .F      MOV      r5,r2
        0x10000b98:    3508        .5      ADDS     r5,r5,#8
        0x10000b9a:    2902        .)      CMP      r1,#2
        0x10000b9c:    d00f        ..      BEQ      0x10000bbe ; GPIO_RegisterMap + 54
        0x10000b9e:    4e0e        .N      LDR      r6,[pc,#56] ; [0x10000bd8] = 0x40001000
        0x10000ba0:    2903        .)      CMP      r1,#3
        0x10000ba2:    d00f        ..      BEQ      0x10000bc4 ; GPIO_RegisterMap + 60
        0x10000ba4:    2904        .)      CMP      r1,#4
        0x10000ba6:    d114        ..      BNE      0x10000bd2 ; GPIO_RegisterMap + 74
        0x10000ba8:    e00f        ..      B        0x10000bca ; GPIO_RegisterMap + 66
        0x10000baa:    2a01        .*      CMP      r2,#1
        0x10000bac:    d801        ..      BHI      0x10000bb2 ; GPIO_RegisterMap + 42
        0x10000bae:    4634        4F      MOV      r4,r6
        0x10000bb0:    e003        ..      B        0x10000bba ; GPIO_RegisterMap + 50
        0x10000bb2:    2a07        .*      CMP      r2,#7
        0x10000bb4:    d80d        ..      BHI      0x10000bd2 ; GPIO_RegisterMap + 74
        0x10000bb6:    4c09        .L      LDR      r4,[pc,#36] ; [0x10000bdc] = 0x40004000
        0x10000bb8:    1e92        ..      SUBS     r2,r2,#2
        0x10000bba:    4613        .F      MOV      r3,r2
        0x10000bbc:    e009        ..      B        0x10000bd2 ; GPIO_RegisterMap + 74
        0x10000bbe:    2a07        .*      CMP      r2,#7
        0x10000bc0:    d905        ..      BLS      0x10000bce ; GPIO_RegisterMap + 70
        0x10000bc2:    e006        ..      B        0x10000bd2 ; GPIO_RegisterMap + 74
        0x10000bc4:    2a07        .*      CMP      r2,#7
        0x10000bc6:    d9f2        ..      BLS      0x10000bae ; GPIO_RegisterMap + 38
        0x10000bc8:    e003        ..      B        0x10000bd2 ; GPIO_RegisterMap + 74
        0x10000bca:    2a01        .*      CMP      r2,#1
        0x10000bcc:    d801        ..      BHI      0x10000bd2 ; GPIO_RegisterMap + 74
        0x10000bce:    4634        4F      MOV      r4,r6
        0x10000bd0:    462b        +F      MOV      r3,r5
        0x10000bd2:    6004        .`      STR      r4,[r0,#0]
        0x10000bd4:    6043        C`      STR      r3,[r0,#4]
        0x10000bd6:    bd70        p.      POP      {r4-r6,pc}
    $d
        0x10000bd8:    40001000    ...@    DCD    1073745920
        0x10000bdc:    40004000    .@.@    DCD    1073758208
    $t
    i.GPIO_SetAFMode
    GPIO_SetAFMode
        0x10000be0:    b510        ..      PUSH     {r4,lr}
        0x10000be2:    4614        .F      MOV      r4,r2
        0x10000be4:    f7ffffa6    ....    BL       GPIO_PinMuxAdrMap ; 0x10000b34
        0x10000be8:    2800        .(      CMP      r0,#0
        0x10000bea:    d00f        ..      BEQ      0x10000c0c ; GPIO_SetAFMode + 44
        0x10000bec:    6801        .h      LDR      r1,[r0,#0]
        0x10000bee:    2207        ."      MOVS     r2,#7
        0x10000bf0:    0212        ..      LSLS     r2,r2,#8
        0x10000bf2:    4391        .C      BICS     r1,r1,r2
        0x10000bf4:    0762        b.      LSLS     r2,r4,#29
        0x10000bf6:    0d52        R.      LSRS     r2,r2,#21
        0x10000bf8:    4311        .C      ORRS     r1,r1,r2
        0x10000bfa:    6001        .`      STR      r1,[r0,#0]
        0x10000bfc:    2101        .!      MOVS     r1,#1
        0x10000bfe:    04c9        ..      LSLS     r1,r1,#19
        0x10000c00:    6802        .h      LDR      r2,[r0,#0]
        0x10000c02:    2c05        .,      CMP      r4,#5
        0x10000c04:    d003        ..      BEQ      0x10000c0e ; GPIO_SetAFMode + 46
        0x10000c06:    430a        .C      ORRS     r2,r2,r1
        0x10000c08:    6002        .`      STR      r2,[r0,#0]
        0x10000c0a:    2001        .       MOVS     r0,#1
        0x10000c0c:    bd10        ..      POP      {r4,pc}
        0x10000c0e:    438a        .C      BICS     r2,r2,r1
        0x10000c10:    e7fa        ..      B        0x10000c08 ; GPIO_SetAFMode + 40
    i.GPIO_SetBits
    GPIO_SetBits
        0x10000c12:    b51c        ..      PUSH     {r2-r4,lr}
        0x10000c14:    460a        .F      MOV      r2,r1
        0x10000c16:    4601        .F      MOV      r1,r0
        0x10000c18:    4668        hF      MOV      r0,sp
        0x10000c1a:    f7ffffb5    ....    BL       GPIO_RegisterMap ; 0x10000b88
        0x10000c1e:    9800        ..      LDR      r0,[sp,#0]
        0x10000c20:    9901        ..      LDR      r1,[sp,#4]
        0x10000c22:    2800        .(      CMP      r0,#0
        0x10000c24:    d004        ..      BEQ      0x10000c30 ; GPIO_SetBits + 30
        0x10000c26:    6842        Bh      LDR      r2,[r0,#4]
        0x10000c28:    2301        .#      MOVS     r3,#1
        0x10000c2a:    408b        .@      LSLS     r3,r3,r1
        0x10000c2c:    431a        .C      ORRS     r2,r2,r3
        0x10000c2e:    6042        B`      STR      r2,[r0,#4]
        0x10000c30:    bd1c        ..      POP      {r2-r4,pc}
    i.HardFault_Handler
    HardFault_Handler
        0x10000c32:    e7fe        ..      B        HardFault_Handler ; 0x10000c32
    i.IC_PowupInit
    IC_PowupInit
        0x10000c34:    4808        .H      LDR      r0,[pc,#32] ; [0x10000c58] = 0x4000
        0x10000c36:    4909        .I      LDR      r1,[pc,#36] ; [0x10000c5c] = 0x100012dd
        0x10000c38:    6001        .`      STR      r1,[r0,#0]
        0x10000c3a:    4909        .I      LDR      r1,[pc,#36] ; [0x10000c60] = 0x10000c33
        0x10000c3c:    6041        A`      STR      r1,[r0,#4]
        0x10000c3e:    4909        .I      LDR      r1,[pc,#36] ; [0x10000c64] = 0x10001809
        0x10000c40:    6081        .`      STR      r1,[r0,#8]
        0x10000c42:    4909        .I      LDR      r1,[pc,#36] ; [0x10000c68] = 0x10001441
        0x10000c44:    60c1        .`      STR      r1,[r0,#0xc]
        0x10000c46:    4909        .I      LDR      r1,[pc,#36] ; [0x10000c6c] = 0x10001cd5
        0x10000c48:    6101        .a      STR      r1,[r0,#0x10]
        0x10000c4a:    4909        .I      LDR      r1,[pc,#36] ; [0x10000c70] = 0x10002131
        0x10000c4c:    6141        Aa      STR      r1,[r0,#0x14]
        0x10000c4e:    4909        .I      LDR      r1,[pc,#36] ; [0x10000c74] = 0x1000235d
        0x10000c50:    6181        .a      STR      r1,[r0,#0x18]
        0x10000c52:    4909        .I      LDR      r1,[pc,#36] ; [0x10000c78] = 0x10002029
        0x10000c54:    61c1        .a      STR      r1,[r0,#0x1c]
        0x10000c56:    4770        pG      BX       lr
    $d
        0x10000c58:    00004000    .@..    DCD    16384
        0x10000c5c:    100012dd    ....    DCD    268440285
        0x10000c60:    10000c33    3...    DCD    268438579
        0x10000c64:    10001809    ....    DCD    268441609
        0x10000c68:    10001441    A...    DCD    268440641
        0x10000c6c:    10001cd5    ....    DCD    268442837
        0x10000c70:    10002131    1!..    DCD    268443953
        0x10000c74:    1000235d    ]#..    DCD    268444509
        0x10000c78:    10002029    ) ..    DCD    268443689
    $t
    i.IWDG_ClearITPending
    IWDG_ClearITPending
        0x10000c7c:    4908        .I      LDR      r1,[pc,#32] ; [0x10000ca0] = 0x40008000
        0x10000c7e:    2801        .(      CMP      r0,#1
        0x10000c80:    d006        ..      BEQ      0x10000c90 ; IWDG_ClearITPending + 20
        0x10000c82:    2802        .(      CMP      r0,#2
        0x10000c84:    d007        ..      BEQ      0x10000c96 ; IWDG_ClearITPending + 26
        0x10000c86:    2803        .(      CMP      r0,#3
        0x10000c88:    d109        ..      BNE      0x10000c9e ; IWDG_ClearITPending + 34
        0x10000c8a:    6948        Hi      LDR      r0,[r1,#0x14]
        0x10000c8c:    2201        ."      MOVS     r2,#1
        0x10000c8e:    e004        ..      B        0x10000c9a ; IWDG_ClearITPending + 30
        0x10000c90:    6948        Hi      LDR      r0,[r1,#0x14]
        0x10000c92:    2204        ."      MOVS     r2,#4
        0x10000c94:    e001        ..      B        0x10000c9a ; IWDG_ClearITPending + 30
        0x10000c96:    6948        Hi      LDR      r0,[r1,#0x14]
        0x10000c98:    2202        ."      MOVS     r2,#2
        0x10000c9a:    4310        .C      ORRS     r0,r0,r2
        0x10000c9c:    6148        Ha      STR      r0,[r1,#0x14]
        0x10000c9e:    4770        pG      BX       lr
    $d
        0x10000ca0:    40008000    ...@    DCD    1073774592
    $t
    i.IWDG_Enable
    IWDG_Enable
        0x10000ca4:    4802        .H      LDR      r0,[pc,#8] ; [0x10000cb0] = 0x40008000
        0x10000ca6:    6801        .h      LDR      r1,[r0,#0]
        0x10000ca8:    2201        ."      MOVS     r2,#1
        0x10000caa:    4311        .C      ORRS     r1,r1,r2
        0x10000cac:    6001        .`      STR      r1,[r0,#0]
        0x10000cae:    4770        pG      BX       lr
    $d
        0x10000cb0:    40008000    ...@    DCD    1073774592
    $t
    i.IWDG_GetITFlag
    IWDG_GetITFlag
        0x10000cb4:    4601        .F      MOV      r1,r0
        0x10000cb6:    2000        .       MOVS     r0,#0
        0x10000cb8:    4a08        .J      LDR      r2,[pc,#32] ; [0x10000cdc] = 0x40008000
        0x10000cba:    2901        .)      CMP      r1,#1
        0x10000cbc:    d006        ..      BEQ      0x10000ccc ; IWDG_GetITFlag + 24
        0x10000cbe:    2902        .)      CMP      r1,#2
        0x10000cc0:    d007        ..      BEQ      0x10000cd2 ; IWDG_GetITFlag + 30
        0x10000cc2:    2903        .)      CMP      r1,#3
        0x10000cc4:    d108        ..      BNE      0x10000cd8 ; IWDG_GetITFlag + 36
        0x10000cc6:    69d0        .i      LDR      r0,[r2,#0x1c]
        0x10000cc8:    0600        ..      LSLS     r0,r0,#24
        0x10000cca:    e004        ..      B        0x10000cd6 ; IWDG_GetITFlag + 34
        0x10000ccc:    69d0        .i      LDR      r0,[r2,#0x1c]
        0x10000cce:    0580        ..      LSLS     r0,r0,#22
        0x10000cd0:    e001        ..      B        0x10000cd6 ; IWDG_GetITFlag + 34
        0x10000cd2:    69d0        .i      LDR      r0,[r2,#0x1c]
        0x10000cd4:    05c0        ..      LSLS     r0,r0,#23
        0x10000cd6:    0fc0        ..      LSRS     r0,r0,#31
        0x10000cd8:    4770        pG      BX       lr
    $d
        0x10000cda:    0000        ..      DCW    0
        0x10000cdc:    40008000    ...@    DCD    1073774592
    $t
    i.IwdgCallback
    IwdgCallback
        0x10000ce0:    b510        ..      PUSH     {r4,lr}
        0x10000ce2:    2003        .       MOVS     r0,#3
        0x10000ce4:    f7ffffe6    ....    BL       IWDG_GetITFlag ; 0x10000cb4
        0x10000ce8:    2800        .(      CMP      r0,#0
        0x10000cea:    d00f        ..      BEQ      0x10000d0c ; IwdgCallback + 44
        0x10000cec:    2003        .       MOVS     r0,#3
        0x10000cee:    f7ffffc5    ....    BL       IWDG_ClearITPending ; 0x10000c7c
        0x10000cf2:    2100        .!      MOVS     r1,#0
        0x10000cf4:    2003        .       MOVS     r0,#3
        0x10000cf6:    f7fffea0    ....    BL       GPIO_ClrAFMode ; 0x10000a3a
        0x10000cfa:    f3bf8f4f    ..O.    DSB      
        0x10000cfe:    4905        .I      LDR      r1,[pc,#20] ; [0x10000d14] = 0xe000ed00
        0x10000d00:    4803        .H      LDR      r0,[pc,#12] ; [0x10000d10] = 0x5fa0004
        0x10000d02:    60c8        .`      STR      r0,[r1,#0xc]
        0x10000d04:    f3bf8f4f    ..O.    DSB      
        0x10000d08:    bf00        ..      NOP      
        0x10000d0a:    e7fd        ..      B        0x10000d08 ; IwdgCallback + 40
        0x10000d0c:    bd10        ..      POP      {r4,pc}
    $d
        0x10000d0e:    0000        ..      DCW    0
        0x10000d10:    05fa0004    ....    DCD    100270084
        0x10000d14:    e000ed00    ....    DCD    3758157056
    $t
    i.Light_AdaptBaselineSet
    Light_AdaptBaselineSet
        0x10000d18:    b5f0        ..      PUSH     {r4-r7,lr}
        0x10000d1a:    2500        .%      MOVS     r5,#0
        0x10000d1c:    9c05        ..      LDR      r4,[sp,#0x14]
        0x10000d1e:    7005        .p      STRB     r5,[r0,#0]
        0x10000d20:    68c7        .h      LDR      r7,[r0,#0xc]
        0x10000d22:    462e        .F      MOV      r6,r5
        0x10000d24:    18ba        ..      ADDS     r2,r7,r2
        0x10000d26:    60c2        .`      STR      r2,[r0,#0xc]
        0x10000d28:    4a38        8J      LDR      r2,[pc,#224] ; [0x10000e0c] = 0x41b8
        0x10000d2a:    7852        Rx      LDRB     r2,[r2,#1]
        0x10000d2c:    2a00        .*      CMP      r2,#0
        0x10000d2e:    d06c        l.      BEQ      0x10000e0a ; Light_AdaptBaselineSet + 242
        0x10000d30:    88c2        ..      LDRH     r2,[r0,#6]
        0x10000d32:    8102        ..      STRH     r2,[r0,#8]
        0x10000d34:    8882        ..      LDRH     r2,[r0,#4]
        0x10000d36:    80c2        ..      STRH     r2,[r0,#6]
        0x10000d38:    8842        B.      LDRH     r2,[r0,#2]
        0x10000d3a:    8082        ..      STRH     r2,[r0,#4]
        0x10000d3c:    8043        C.      STRH     r3,[r0,#2]
        0x10000d3e:    006a        j.      LSLS     r2,r5,#1
        0x10000d40:    1813        ..      ADDS     r3,r2,r0
        0x10000d42:    2202        ."      MOVS     r2,#2
        0x10000d44:    5e9a        .^      LDRSH    r2,[r3,r2]
        0x10000d46:    1c6d        m.      ADDS     r5,r5,#1
        0x10000d48:    1996        ..      ADDS     r6,r2,r6
        0x10000d4a:    b2ed        ..      UXTB     r5,r5
        0x10000d4c:    2d04        .-      CMP      r5,#4
        0x10000d4e:    d3f6        ..      BCC      0x10000d3e ; Light_AdaptBaselineSet + 38
        0x10000d50:    4a2f        /J      LDR      r2,[pc,#188] ; [0x10000e10] = 0x40040000
        0x10000d52:    6016        .`      STR      r6,[r2,#0]
        0x10000d54:    2304        .#      MOVS     r3,#4
        0x10000d56:    6053        S`      STR      r3,[r2,#4]
        0x10000d58:    6893        .h      LDR      r3,[r2,#8]
        0x10000d5a:    105a        Z.      ASRS     r2,r3,#1
        0x10000d5c:    18d5        ..      ADDS     r5,r2,r3
        0x10000d5e:    1a9a        ..      SUBS     r2,r3,r2
        0x10000d60:    4694        .F      MOV      r12,r2
        0x10000d62:    2200        ."      MOVS     r2,#0
        0x10000d64:    0056        V.      LSLS     r6,r2,#1
        0x10000d66:    1837        7.      ADDS     r7,r6,r0
        0x10000d68:    2602        .&      MOVS     r6,#2
        0x10000d6a:    5fbe        ._      LDRSH    r6,[r7,r6]
        0x10000d6c:    42ae        .B      CMP      r6,r5
        0x10000d6e:    dc05        ..      BGT      0x10000d7c ; Light_AdaptBaselineSet + 100
        0x10000d70:    4566        fE      CMP      r6,r12
        0x10000d72:    db03        ..      BLT      0x10000d7c ; Light_AdaptBaselineSet + 100
        0x10000d74:    1c52        R.      ADDS     r2,r2,#1
        0x10000d76:    b2d2        ..      UXTB     r2,r2
        0x10000d78:    2a04        .*      CMP      r2,#4
        0x10000d7a:    d3f3        ..      BCC      0x10000d64 ; Light_AdaptBaselineSet + 76
        0x10000d7c:    2a04        .*      CMP      r2,#4
        0x10000d7e:    d142        B.      BNE      0x10000e06 ; Light_AdaptBaselineSet + 238
        0x10000d80:    4a23        #J      LDR      r2,[pc,#140] ; [0x10000e10] = 0x40040000
        0x10000d82:    68c5        .h      LDR      r5,[r0,#0xc]
        0x10000d84:    6015        .`      STR      r5,[r2,#0]
        0x10000d86:    2532        2%      MOVS     r5,#0x32
        0x10000d88:    6055        U`      STR      r5,[r2,#4]
        0x10000d8a:    6896        .h      LDR      r6,[r2,#8]
        0x10000d8c:    01ad        ..      LSLS     r5,r5,#6
        0x10000d8e:    60c6        .`      STR      r6,[r0,#0xc]
        0x10000d90:    2b80        .+      CMP      r3,#0x80
        0x10000d92:    dc23        #.      BGT      0x10000ddc ; Light_AdaptBaselineSet + 196
        0x10000d94:    2c00        .,      CMP      r4,#0
        0x10000d96:    d002        ..      BEQ      0x10000d9e ; Light_AdaptBaselineSet + 134
        0x10000d98:    2c01        .,      CMP      r4,#1
        0x10000d9a:    d004        ..      BEQ      0x10000da6 ; Light_AdaptBaselineSet + 142
        0x10000d9c:    e02d        -.      B        0x10000dfa ; Light_AdaptBaselineSet + 226
        0x10000d9e:    888b        ..      LDRH     r3,[r1,#4]
        0x10000da0:    42ab        .B      CMP      r3,r5
        0x10000da2:    d305        ..      BCC      0x10000db0 ; Light_AdaptBaselineSet + 152
        0x10000da4:    e01f        ..      B        0x10000de6 ; Light_AdaptBaselineSet + 206
        0x10000da6:    888f        ..      LDRH     r7,[r1,#4]
        0x10000da8:    2307        .#      MOVS     r3,#7
        0x10000daa:    025b        [.      LSLS     r3,r3,#9
        0x10000dac:    429f        .B      CMP      r7,r3
        0x10000dae:    d21f        ..      BCS      0x10000df0 ; Light_AdaptBaselineSet + 216
        0x10000db0:    890f        ..      LDRH     r7,[r1,#8]
        0x10000db2:    230d        .#      MOVS     r3,#0xd
        0x10000db4:    031b        ..      LSLS     r3,r3,#12
        0x10000db6:    429f        .B      CMP      r7,r3
        0x10000db8:    d210        ..      BCS      0x10000ddc ; Light_AdaptBaselineSet + 196
        0x10000dba:    2701        .'      MOVS     r7,#1
        0x10000dbc:    03ff        ..      LSLS     r7,r7,#15
        0x10000dbe:    42be        .B      CMP      r6,r7
        0x10000dc0:    da01        ..      BGE      0x10000dc6 ; Light_AdaptBaselineSet + 174
        0x10000dc2:    2305        .#      MOVS     r3,#5
        0x10000dc4:    035b        [.      LSLS     r3,r3,#13
        0x10000dc6:    810b        ..      STRH     r3,[r1,#8]
        0x10000dc8:    888b        ..      LDRH     r3,[r1,#4]
        0x10000dca:    890e        ..      LDRH     r6,[r1,#8]
        0x10000dcc:    4373        sC      MULS     r3,r6,r3
        0x10000dce:    6013        .`      STR      r3,[r2,#0]
        0x10000dd0:    68c3        .h      LDR      r3,[r0,#0xc]
        0x10000dd2:    6053        S`      STR      r3,[r2,#4]
        0x10000dd4:    6892        .h      LDR      r2,[r2,#8]
        0x10000dd6:    808a        ..      STRH     r2,[r1,#4]
        0x10000dd8:    2201        ."      MOVS     r2,#1
        0x10000dda:    7002        .p      STRB     r2,[r0,#0]
        0x10000ddc:    2c00        .,      CMP      r4,#0
        0x10000dde:    d002        ..      BEQ      0x10000de6 ; Light_AdaptBaselineSet + 206
        0x10000de0:    2c01        .,      CMP      r4,#1
        0x10000de2:    d005        ..      BEQ      0x10000df0 ; Light_AdaptBaselineSet + 216
        0x10000de4:    e009        ..      B        0x10000dfa ; Light_AdaptBaselineSet + 226
        0x10000de6:    888a        ..      LDRH     r2,[r1,#4]
        0x10000de8:    42aa        .B      CMP      r2,r5
        0x10000dea:    d906        ..      BLS      0x10000dfa ; Light_AdaptBaselineSet + 226
        0x10000dec:    808d        ..      STRH     r5,[r1,#4]
        0x10000dee:    e004        ..      B        0x10000dfa ; Light_AdaptBaselineSet + 226
        0x10000df0:    888b        ..      LDRH     r3,[r1,#4]
        0x10000df2:    2207        ."      MOVS     r2,#7
        0x10000df4:    0252        R.      LSLS     r2,r2,#9
        0x10000df6:    4293        .B      CMP      r3,r2
        0x10000df8:    d804        ..      BHI      0x10000e04 ; Light_AdaptBaselineSet + 236
        0x10000dfa:    888b        ..      LDRH     r3,[r1,#4]
        0x10000dfc:    2201        ."      MOVS     r2,#1
        0x10000dfe:    0252        R.      LSLS     r2,r2,#9
        0x10000e00:    4293        .B      CMP      r3,r2
        0x10000e02:    d200        ..      BCS      0x10000e06 ; Light_AdaptBaselineSet + 238
        0x10000e04:    808a        ..      STRH     r2,[r1,#4]
        0x10000e06:    2100        .!      MOVS     r1,#0
        0x10000e08:    60c1        .`      STR      r1,[r0,#0xc]
        0x10000e0a:    bdf0        ..      POP      {r4-r7,pc}
    $d
        0x10000e0c:    000041b8    .A..    DCD    16824
        0x10000e10:    40040000    ...@    DCD    1074003968
    $t
    i.Light_AdjustDrive
    Light_AdjustDrive
        0x10000e14:    b5f0        ..      PUSH     {r4-r7,lr}
        0x10000e16:    7883        .x      LDRB     r3,[r0,#2]
        0x10000e18:    2400        .$      MOVS     r4,#0
        0x10000e1a:    2b10        .+      CMP      r3,#0x10
        0x10000e1c:    d303        ..      BCC      0x10000e26 ; Light_AdjustDrive + 18
        0x10000e1e:    7084        .p      STRB     r4,[r0,#2]
        0x10000e20:    2120         !      MOVS     r1,#0x20
        0x10000e22:    7041        Ap      STRB     r1,[r0,#1]
        0x10000e24:    e002        ..      B        0x10000e2c ; Light_AdjustDrive + 24
        0x10000e26:    7845        Ex      LDRB     r5,[r0,#1]
        0x10000e28:    2d00        .-      CMP      r5,#0
        0x10000e2a:    d008        ..      BEQ      0x10000e3e ; Light_AdjustDrive + 42
        0x10000e2c:    7841        Ax      LDRB     r1,[r0,#1]
        0x10000e2e:    1e49        I.      SUBS     r1,r1,#1
        0x10000e30:    0609        ..      LSLS     r1,r1,#24
        0x10000e32:    0e09        ..      LSRS     r1,r1,#24
        0x10000e34:    7041        Ap      STRB     r1,[r0,#1]
        0x10000e36:    8084        ..      STRH     r4,[r0,#4]
        0x10000e38:    d100        ..      BNE      0x10000e3c ; Light_AdjustDrive + 40
        0x10000e3a:    8082        ..      STRH     r2,[r0,#4]
        0x10000e3c:    bdf0        ..      POP      {r4-r7,pc}
        0x10000e3e:    8905        ..      LDRH     r5,[r0,#8]
        0x10000e40:    2d00        .-      CMP      r5,#0
        0x10000e42:    d007        ..      BEQ      0x10000e54 ; Light_AdjustDrive + 64
        0x10000e44:    250f        .%      MOVS     r5,#0xf
        0x10000e46:    032d        -.      LSLS     r5,r5,#12
        0x10000e48:    42a9        .B      CMP      r1,r5
        0x10000e4a:    d803        ..      BHI      0x10000e54 ; Light_AdjustDrive + 64
        0x10000e4c:    2501        .%      MOVS     r5,#1
        0x10000e4e:    02ad        ..      LSLS     r5,r5,#10
        0x10000e50:    42a9        .B      CMP      r1,r5
        0x10000e52:    d206        ..      BCS      0x10000e62 ; Light_AdjustDrive + 78
        0x10000e54:    2505        .%      MOVS     r5,#5
        0x10000e56:    7004        .p      STRB     r4,[r0,#0]
        0x10000e58:    036d        m.      LSLS     r5,r5,#13
        0x10000e5a:    8105        ..      STRH     r5,[r0,#8]
        0x10000e5c:    2501        .%      MOVS     r5,#1
        0x10000e5e:    036d        m.      LSLS     r5,r5,#13
        0x10000e60:    8145        E.      STRH     r5,[r0,#0xa]
        0x10000e62:    8905        ..      LDRH     r5,[r0,#8]
        0x10000e64:    8946        F.      LDRH     r6,[r0,#0xa]
        0x10000e66:    1baf        ..      SUBS     r7,r5,r6
        0x10000e68:    428f        .B      CMP      r7,r1
        0x10000e6a:    dc02        ..      BGT      0x10000e72 ; Light_AdjustDrive + 94
        0x10000e6c:    19ae        ..      ADDS     r6,r5,r6
        0x10000e6e:    428e        .B      CMP      r6,r1
        0x10000e70:    d222        ".      BCS      0x10000eb8 ; Light_AdjustDrive + 164
        0x10000e72:    1c5b        [.      ADDS     r3,r3,#1
        0x10000e74:    7083        .p      STRB     r3,[r0,#2]
        0x10000e76:    8886        ..      LDRH     r6,[r0,#4]
        0x10000e78:    4b37        7K      LDR      r3,[pc,#220] ; [0x10000f58] = 0x40040000
        0x10000e7a:    436e        nC      MULS     r6,r5,r6
        0x10000e7c:    601e        .`      STR      r6,[r3,#0]
        0x10000e7e:    6059        Y`      STR      r1,[r3,#4]
        0x10000e80:    689b        .h      LDR      r3,[r3,#8]
        0x10000e82:    8885        ..      LDRH     r5,[r0,#4]
        0x10000e84:    b21b        ..      SXTH     r3,r3
        0x10000e86:    429d        .B      CMP      r5,r3
        0x10000e88:    da02        ..      BGE      0x10000e90 ; Light_AdjustDrive + 124
        0x10000e8a:    35ff        .5      ADDS     r5,r5,#0xff
        0x10000e8c:    3501        .5      ADDS     r5,#1
        0x10000e8e:    e003        ..      B        0x10000e98 ; Light_AdjustDrive + 132
        0x10000e90:    429d        .B      CMP      r5,r3
        0x10000e92:    dd02        ..      BLE      0x10000e9a ; Light_AdjustDrive + 134
        0x10000e94:    3dff        .=      SUBS     r5,r5,#0xff
        0x10000e96:    3d01        .=      SUBS     r5,#1
        0x10000e98:    b22b        +.      SXTH     r3,r5
        0x10000e9a:    4293        .B      CMP      r3,r2
        0x10000e9c:    db01        ..      BLT      0x10000ea2 ; Light_AdjustDrive + 142
        0x10000e9e:    4616        .F      MOV      r6,r2
        0x10000ea0:    e000        ..      B        0x10000ea4 ; Light_AdjustDrive + 144
        0x10000ea2:    461e        .F      MOV      r6,r3
        0x10000ea4:    2501        .%      MOVS     r5,#1
        0x10000ea6:    026d        m.      LSLS     r5,r5,#9
        0x10000ea8:    42ae        .B      CMP      r6,r5
        0x10000eaa:    db03        ..      BLT      0x10000eb4 ; Light_AdjustDrive + 160
        0x10000eac:    4293        .B      CMP      r3,r2
        0x10000eae:    db02        ..      BLT      0x10000eb6 ; Light_AdjustDrive + 162
        0x10000eb0:    4613        .F      MOV      r3,r2
        0x10000eb2:    e000        ..      B        0x10000eb6 ; Light_AdjustDrive + 162
        0x10000eb4:    462b        +F      MOV      r3,r5
        0x10000eb6:    8083        ..      STRH     r3,[r0,#4]
        0x10000eb8:    8883        ..      LDRH     r3,[r0,#4]
        0x10000eba:    88c5        ..      LDRH     r5,[r0,#6]
        0x10000ebc:    42ab        .B      CMP      r3,r5
        0x10000ebe:    d003        ..      BEQ      0x10000ec8 ; Light_AdjustDrive + 180
        0x10000ec0:    70c4        .p      STRB     r4,[r0,#3]
        0x10000ec2:    60c4        .`      STR      r4,[r0,#0xc]
        0x10000ec4:    80c3        ..      STRH     r3,[r0,#6]
        0x10000ec6:    bdf0        ..      POP      {r4-r7,pc}
        0x10000ec8:    4d24        $M      LDR      r5,[pc,#144] ; [0x10000f5c] = 0xfffffbff
        0x10000eca:    4e25        %N      LDR      r6,[pc,#148] ; [0x10000f60] = 0xebff
        0x10000ecc:    194d        M.      ADDS     r5,r1,r5
        0x10000ece:    42b5        .B      CMP      r5,r6
        0x10000ed0:    d2f9        ..      BCS      0x10000ec6 ; Light_AdjustDrive + 178
        0x10000ed2:    78c5        .x      LDRB     r5,[r0,#3]
        0x10000ed4:    1c6d        m.      ADDS     r5,r5,#1
        0x10000ed6:    b2ed        ..      UXTB     r5,r5
        0x10000ed8:    70c5        .p      STRB     r5,[r0,#3]
        0x10000eda:    68c6        .h      LDR      r6,[r0,#0xc]
        0x10000edc:    1876        v.      ADDS     r6,r6,r1
        0x10000ede:    60c6        .`      STR      r6,[r0,#0xc]
        0x10000ee0:    7881        .x      LDRB     r1,[r0,#2]
        0x10000ee2:    2900        .)      CMP      r1,#0
        0x10000ee4:    d001        ..      BEQ      0x10000eea ; Light_AdjustDrive + 214
        0x10000ee6:    1e49        I.      SUBS     r1,r1,#1
        0x10000ee8:    7081        .p      STRB     r1,[r0,#2]
        0x10000eea:    2d08        .-      CMP      r5,#8
        0x10000eec:    d3eb        ..      BCC      0x10000ec6 ; Light_AdjustDrive + 178
        0x10000eee:    08f6        ..      LSRS     r6,r6,#3
        0x10000ef0:    60c6        .`      STR      r6,[r0,#0xc]
        0x10000ef2:    7801        .x      LDRB     r1,[r0,#0]
        0x10000ef4:    2900        .)      CMP      r1,#0
        0x10000ef6:    d127        '.      BNE      0x10000f48 ; Light_AdjustDrive + 308
        0x10000ef8:    8905        ..      LDRH     r5,[r0,#8]
        0x10000efa:    2101        .!      MOVS     r1,#1
        0x10000efc:    02c9        ..      LSLS     r1,r1,#11
        0x10000efe:    1a6f        o.      SUBS     r7,r5,r1
        0x10000f00:    42b7        .B      CMP      r7,r6
        0x10000f02:    d802        ..      BHI      0x10000f0a ; Light_AdjustDrive + 246
        0x10000f04:    1869        i.      ADDS     r1,r5,r1
        0x10000f06:    42b1        .B      CMP      r1,r6
        0x10000f08:    d21e        ..      BCS      0x10000f48 ; Light_AdjustDrive + 308
        0x10000f0a:    4913        .I      LDR      r1,[pc,#76] ; [0x10000f58] = 0x40040000
        0x10000f0c:    436b        kC      MULS     r3,r5,r3
        0x10000f0e:    600b        .`      STR      r3,[r1,#0]
        0x10000f10:    68c3        .h      LDR      r3,[r0,#0xc]
        0x10000f12:    604b        K`      STR      r3,[r1,#4]
        0x10000f14:    6889        .h      LDR      r1,[r1,#8]
        0x10000f16:    b20b        ..      SXTH     r3,r1
        0x10000f18:    8881        ..      LDRH     r1,[r0,#4]
        0x10000f1a:    4299        .B      CMP      r1,r3
        0x10000f1c:    da01        ..      BGE      0x10000f22 ; Light_AdjustDrive + 270
        0x10000f1e:    3140        @1      ADDS     r1,r1,#0x40
        0x10000f20:    e002        ..      B        0x10000f28 ; Light_AdjustDrive + 276
        0x10000f22:    4299        .B      CMP      r1,r3
        0x10000f24:    dd01        ..      BLE      0x10000f2a ; Light_AdjustDrive + 278
        0x10000f26:    3940        @9      SUBS     r1,r1,#0x40
        0x10000f28:    b20b        ..      SXTH     r3,r1
        0x10000f2a:    4293        .B      CMP      r3,r2
        0x10000f2c:    db01        ..      BLT      0x10000f32 ; Light_AdjustDrive + 286
        0x10000f2e:    4615        .F      MOV      r5,r2
        0x10000f30:    e000        ..      B        0x10000f34 ; Light_AdjustDrive + 288
        0x10000f32:    461d        .F      MOV      r5,r3
        0x10000f34:    2101        .!      MOVS     r1,#1
        0x10000f36:    0249        I.      LSLS     r1,r1,#9
        0x10000f38:    428d        .B      CMP      r5,r1
        0x10000f3a:    db04        ..      BLT      0x10000f46 ; Light_AdjustDrive + 306
        0x10000f3c:    4293        .B      CMP      r3,r2
        0x10000f3e:    db01        ..      BLT      0x10000f44 ; Light_AdjustDrive + 304
        0x10000f40:    4611        .F      MOV      r1,r2
        0x10000f42:    e000        ..      B        0x10000f46 ; Light_AdjustDrive + 306
        0x10000f44:    4619        .F      MOV      r1,r3
        0x10000f46:    8081        ..      STRH     r1,[r0,#4]
        0x10000f48:    7084        .p      STRB     r4,[r0,#2]
        0x10000f4a:    70c4        .p      STRB     r4,[r0,#3]
        0x10000f4c:    2101        .!      MOVS     r1,#1
        0x10000f4e:    60c4        .`      STR      r4,[r0,#0xc]
        0x10000f50:    7001        .p      STRB     r1,[r0,#0]
        0x10000f52:    0389        ..      LSLS     r1,r1,#14
        0x10000f54:    8141        A.      STRH     r1,[r0,#0xa]
        0x10000f56:    bdf0        ..      POP      {r4-r7,pc}
    $d
        0x10000f58:    40040000    ...@    DCD    1074003968
        0x10000f5c:    fffffbff    ....    DCD    4294966271
        0x10000f60:    0000ebff    ....    DCD    60415
    $t
    i.Light_ProbeDriveAdjust
    Light_ProbeDriveAdjust
        0x10000f64:    b5f8        ..      PUSH     {r3-r7,lr}
        0x10000f66:    4d3d        =M      LDR      r5,[pc,#244] ; [0x1000105c] = 0x4204
        0x10000f68:    2219        ."      MOVS     r2,#0x19
        0x10000f6a:    8a28        (.      LDRH     r0,[r5,#0x10]
        0x10000f6c:    01d2        ..      LSLS     r2,r2,#7
        0x10000f6e:    b281        ..      UXTH     r1,r0
        0x10000f70:    483b        ;H      LDR      r0,[pc,#236] ; [0x10001060] = 0x4178
        0x10000f72:    f7ffff4f    ..O.    BL       Light_AdjustDrive ; 0x10000e14
        0x10000f76:    8aa8        ..      LDRH     r0,[r5,#0x14]
        0x10000f78:    2207        ."      MOVS     r2,#7
        0x10000f7a:    b281        ..      UXTH     r1,r0
        0x10000f7c:    4838        8H      LDR      r0,[pc,#224] ; [0x10001060] = 0x4178
        0x10000f7e:    0252        R.      LSLS     r2,r2,#9
        0x10000f80:    3010        .0      ADDS     r0,r0,#0x10
        0x10000f82:    f7ffff47    ..G.    BL       Light_AdjustDrive ; 0x10000e14
        0x10000f86:    4836        6H      LDR      r0,[pc,#216] ; [0x10001060] = 0x4178
        0x10000f88:    4936        6I      LDR      r1,[pc,#216] ; [0x10001064] = 0x46ba
        0x10000f8a:    3040        @0      ADDS     r0,r0,#0x40
        0x10000f8c:    f000f870    ..p.    BL       Light_StatSampleACVariety ; 0x10001070
        0x10000f90:    4e33        3N      LDR      r6,[pc,#204] ; [0x10001060] = 0x4178
        0x10000f92:    2000        .       MOVS     r0,#0
        0x10000f94:    7831        1x      LDRB     r1,[r6,#0]
        0x10000f96:    4c34        4L      LDR      r4,[pc,#208] ; [0x10001068] = 0x413c
        0x10000f98:    2900        .)      CMP      r1,#0
        0x10000f9a:    d01a        ..      BEQ      0x10000fd2 ; Light_ProbeDriveAdjust + 110
        0x10000f9c:    4631        1F      MOV      r1,r6
        0x10000f9e:    3110        .1      ADDS     r1,r1,#0x10
        0x10000fa0:    7809        .x      LDRB     r1,[r1,#0]
        0x10000fa2:    2900        .)      CMP      r1,#0
        0x10000fa4:    d015        ..      BEQ      0x10000fd2 ; Light_ProbeDriveAdjust + 110
        0x10000fa6:    7861        ax      LDRB     r1,[r4,#1]
        0x10000fa8:    2900        .)      CMP      r1,#0
        0x10000faa:    d004        ..      BEQ      0x10000fb6 ; Light_ProbeDriveAdjust + 82
        0x10000fac:    1e49        I.      SUBS     r1,r1,#1
        0x10000fae:    7061        ap      STRB     r1,[r4,#1]
        0x10000fb0:    b2c9        ..      UXTB     r1,r1
        0x10000fb2:    2908        .)      CMP      r1,#8
        0x10000fb4:    d20b        ..      BCS      0x10000fce ; Light_ProbeDriveAdjust + 106
        0x10000fb6:    2101        .!      MOVS     r1,#1
        0x10000fb8:    682b        +h      LDR      r3,[r5,#0]
        0x10000fba:    0289        ..      LSLS     r1,r1,#10
        0x10000fbc:    686a        jh      LDR      r2,[r5,#4]
        0x10000fbe:    185b        [.      ADDS     r3,r3,r1
        0x10000fc0:    429a        .B      CMP      r2,r3
        0x10000fc2:    db04        ..      BLT      0x10000fce ; Light_ProbeDriveAdjust + 106
        0x10000fc4:    68aa        .h      LDR      r2,[r5,#8]
        0x10000fc6:    68eb        .h      LDR      r3,[r5,#0xc]
        0x10000fc8:    1851        Q.      ADDS     r1,r2,r1
        0x10000fca:    428b        .B      CMP      r3,r1
        0x10000fcc:    da06        ..      BGE      0x10000fdc ; Light_ProbeDriveAdjust + 120
        0x10000fce:    7020         p      STRB     r0,[r4,#0]
        0x10000fd0:    e03c        <.      B        0x1000104c ; Light_ProbeDriveAdjust + 232
        0x10000fd2:    7861        ax      LDRB     r1,[r4,#1]
        0x10000fd4:    2910        .)      CMP      r1,#0x10
        0x10000fd6:    d2eb        ..      BCS      0x10000fb0 ; Light_ProbeDriveAdjust + 76
        0x10000fd8:    1c49        I.      ADDS     r1,r1,#1
        0x10000fda:    e7e8        ..      B        0x10000fae ; Light_ProbeDriveAdjust + 74
        0x10000fdc:    7821        !x      LDRB     r1,[r4,#0]
        0x10000fde:    2501        .%      MOVS     r5,#1
        0x10000fe0:    2900        .)      CMP      r1,#0
        0x10000fe2:    d10b        ..      BNE      0x10000ffc ; Light_ProbeDriveAdjust + 152
        0x10000fe4:    491e        .I      LDR      r1,[pc,#120] ; [0x10001060] = 0x4178
        0x10000fe6:    7025        %p      STRB     r5,[r4,#0]
        0x10000fe8:    6208        .b      STR      r0,[r1,#0x20]
        0x10000fea:    6248        Hb      STR      r0,[r1,#0x24]
        0x10000fec:    6288        .b      STR      r0,[r1,#0x28]
        0x10000fee:    62c8        .b      STR      r0,[r1,#0x2c]
        0x10000ff0:    6308        .c      STR      r0,[r1,#0x30]
        0x10000ff2:    6348        Hc      STR      r0,[r1,#0x34]
        0x10000ff4:    6388        .c      STR      r0,[r1,#0x38]
        0x10000ff6:    63c8        .c      STR      r0,[r1,#0x3c]
        0x10000ff8:    491c        .I      LDR      r1,[pc,#112] ; [0x1000106c] = 0x4143
        0x10000ffa:    700d        .p      STRB     r5,[r1,#0]
        0x10000ffc:    9000        ..      STR      r0,[sp,#0]
        0x10000ffe:    4819        .H      LDR      r0,[pc,#100] ; [0x10001064] = 0x46ba
        0x10001000:    4f17        .O      LDR      r7,[pc,#92] ; [0x10001060] = 0x4178
        0x10001002:    4917        .I      LDR      r1,[pc,#92] ; [0x10001060] = 0x4178
        0x10001004:    8902        ..      LDRH     r2,[r0,#8]
        0x10001006:    3740        @7      ADDS     r7,r7,#0x40
        0x10001008:    2318        .#      MOVS     r3,#0x18
        0x1000100a:    4608        .F      MOV      r0,r1
        0x1000100c:    5efb        .^      LDRSH    r3,[r7,r3]
        0x1000100e:    3020         0      ADDS     r0,r0,#0x20
        0x10001010:    f7fffe82    ....    BL       Light_AdaptBaselineSet ; 0x10000d18
        0x10001014:    9500        ..      STR      r5,[sp,#0]
        0x10001016:    4813        .H      LDR      r0,[pc,#76] ; [0x10001064] = 0x46ba
        0x10001018:    4639        9F      MOV      r1,r7
        0x1000101a:    8942        B.      LDRH     r2,[r0,#0xa]
        0x1000101c:    3930        09      SUBS     r1,r1,#0x30
        0x1000101e:    231a        .#      MOVS     r3,#0x1a
        0x10001020:    4608        .F      MOV      r0,r1
        0x10001022:    5efb        .^      LDRSH    r3,[r7,r3]
        0x10001024:    3020         0      ADDS     r0,r0,#0x20
        0x10001026:    f7fffe77    ..w.    BL       Light_AdaptBaselineSet ; 0x10000d18
        0x1000102a:    4638        8F      MOV      r0,r7
        0x1000102c:    3820         8      SUBS     r0,r0,#0x20
        0x1000102e:    7800        .x      LDRB     r0,[r0,#0]
        0x10001030:    07c0        ..      LSLS     r0,r0,#31
        0x10001032:    d104        ..      BNE      0x1000103e ; Light_ProbeDriveAdjust + 218
        0x10001034:    4638        8F      MOV      r0,r7
        0x10001036:    3810        .8      SUBS     r0,r0,#0x10
        0x10001038:    7800        .x      LDRB     r0,[r0,#0]
        0x1000103a:    07c0        ..      LSLS     r0,r0,#31
        0x1000103c:    d006        ..      BEQ      0x1000104c ; Light_ProbeDriveAdjust + 232
        0x1000103e:    4808        .H      LDR      r0,[pc,#32] ; [0x10001060] = 0x4178
        0x10001040:    212c        ,!      MOVS     r1,#0x2c
        0x10001042:    3040        @0      ADDS     r0,r0,#0x40
        0x10001044:    f7fff877    ..w.    BL       __aeabi_memclr ; 0x10000136
        0x10001048:    2064        d       MOVS     r0,#0x64
        0x1000104a:    8078        x.      STRH     r0,[r7,#2]
        0x1000104c:    88b0        ..      LDRH     r0,[r6,#4]
        0x1000104e:    8060        `.      STRH     r0,[r4,#2]
        0x10001050:    4803        .H      LDR      r0,[pc,#12] ; [0x10001060] = 0x4178
        0x10001052:    3010        .0      ADDS     r0,r0,#0x10
        0x10001054:    8880        ..      LDRH     r0,[r0,#4]
        0x10001056:    80a0        ..      STRH     r0,[r4,#4]
        0x10001058:    7820         x      LDRB     r0,[r4,#0]
        0x1000105a:    bdf8        ..      POP      {r3-r7,pc}
    $d
        0x1000105c:    00004204    .B..    DCD    16900
        0x10001060:    00004178    xA..    DCD    16760
        0x10001064:    000046ba    .F..    DCD    18106
        0x10001068:    0000413c    <A..    DCD    16700
        0x1000106c:    00004143    CA..    DCD    16707
    $t
    i.Light_StatSampleACVariety
    Light_StatSampleACVariety
        0x10001070:    b5f8        ..      PUSH     {r3-r7,lr}
        0x10001072:    4604        .F      MOV      r4,r0
        0x10001074:    4896        .H      LDR      r0,[pc,#600] ; [0x100012d0] = 0x4178
        0x10001076:    2700        .'      MOVS     r7,#0
        0x10001078:    7800        .x      LDRB     r0,[r0,#0]
        0x1000107a:    2800        .(      CMP      r0,#0
        0x1000107c:    d00b        ..      BEQ      0x10001096 ; Light_StatSampleACVariety + 38
        0x1000107e:    4894        .H      LDR      r0,[pc,#592] ; [0x100012d0] = 0x4178
        0x10001080:    3010        .0      ADDS     r0,r0,#0x10
        0x10001082:    7800        .x      LDRB     r0,[r0,#0]
        0x10001084:    2800        .(      CMP      r0,#0
        0x10001086:    d006        ..      BEQ      0x10001096 ; Light_StatSampleACVariety + 38
        0x10001088:    2302        .#      MOVS     r3,#2
        0x1000108a:    5ee3        .^      LDRSH    r3,[r4,r3]
        0x1000108c:    2b32        2+      CMP      r3,#0x32
        0x1000108e:    dd09        ..      BLE      0x100010a4 ; Light_StatSampleACVariety + 52
        0x10001090:    1e5b        [.      SUBS     r3,r3,#1
        0x10001092:    8063        c.      STRH     r3,[r4,#2]
        0x10001094:    bdf8        ..      POP      {r3-r7,pc}
        0x10001096:    212c        ,!      MOVS     r1,#0x2c
        0x10001098:    4620         F      MOV      r0,r4
        0x1000109a:    f7fff84c    ..L.    BL       __aeabi_memclr ; 0x10000136
        0x1000109e:    20ff        .       MOVS     r0,#0xff
        0x100010a0:    3091        .0      ADDS     r0,r0,#0x91
        0x100010a2:    e112        ..      B        0x100012ca ; Light_StatSampleACVariety + 602
        0x100010a4:    88a0        ..      LDRH     r0,[r4,#4]
        0x100010a6:    2800        .(      CMP      r0,#0
        0x100010a8:    d07e        ~.      BEQ      0x100011a8 ; Light_StatSampleACVariety + 312
        0x100010aa:    88e2        ..      LDRH     r2,[r4,#6]
        0x100010ac:    2a00        .*      CMP      r2,#0
        0x100010ae:    d0fb        ..      BEQ      0x100010a8 ; Light_StatSampleACVariety + 56
        0x100010b0:    898d        ..      LDRH     r5,[r1,#0xc]
        0x100010b2:    42a8        .B      CMP      r0,r5
        0x100010b4:    d200        ..      BCS      0x100010b8 ; Light_StatSampleACVariety + 72
        0x100010b6:    4628        (F      MOV      r0,r5
        0x100010b8:    80a0        ..      STRH     r0,[r4,#4]
        0x100010ba:    8988        ..      LDRH     r0,[r1,#0xc]
        0x100010bc:    4282        .B      CMP      r2,r0
        0x100010be:    d300        ..      BCC      0x100010c2 ; Light_StatSampleACVariety + 82
        0x100010c0:    4602        .F      MOV      r2,r0
        0x100010c2:    80e2        ..      STRH     r2,[r4,#6]
        0x100010c4:    8920         .      LDRH     r0,[r4,#8]
        0x100010c6:    2800        .(      CMP      r0,#0
        0x100010c8:    d06f        o.      BEQ      0x100011aa ; Light_StatSampleACVariety + 314
        0x100010ca:    8962        b.      LDRH     r2,[r4,#0xa]
        0x100010cc:    2a00        .*      CMP      r2,#0
        0x100010ce:    d0fb        ..      BEQ      0x100010c8 ; Light_StatSampleACVariety + 88
        0x100010d0:    898d        ..      LDRH     r5,[r1,#0xc]
        0x100010d2:    42a8        .B      CMP      r0,r5
        0x100010d4:    d200        ..      BCS      0x100010d8 ; Light_StatSampleACVariety + 104
        0x100010d6:    4628        (F      MOV      r0,r5
        0x100010d8:    8120         .      STRH     r0,[r4,#8]
        0x100010da:    8988        ..      LDRH     r0,[r1,#0xc]
        0x100010dc:    4282        .B      CMP      r2,r0
        0x100010de:    d300        ..      BCC      0x100010e2 ; Light_StatSampleACVariety + 114
        0x100010e0:    4602        .F      MOV      r2,r0
        0x100010e2:    8162        b.      STRH     r2,[r4,#0xa]
        0x100010e4:    89a0        ..      LDRH     r0,[r4,#0xc]
        0x100010e6:    2800        .(      CMP      r0,#0
        0x100010e8:    d07e        ~.      BEQ      0x100011e8 ; Light_StatSampleACVariety + 376
        0x100010ea:    89e2        ..      LDRH     r2,[r4,#0xe]
        0x100010ec:    2a00        .*      CMP      r2,#0
        0x100010ee:    d0fb        ..      BEQ      0x100010e8 ; Light_StatSampleACVariety + 120
        0x100010f0:    890d        ..      LDRH     r5,[r1,#8]
        0x100010f2:    42a8        .B      CMP      r0,r5
        0x100010f4:    d200        ..      BCS      0x100010f8 ; Light_StatSampleACVariety + 136
        0x100010f6:    4628        (F      MOV      r0,r5
        0x100010f8:    81a0        ..      STRH     r0,[r4,#0xc]
        0x100010fa:    8908        ..      LDRH     r0,[r1,#8]
        0x100010fc:    4282        .B      CMP      r2,r0
        0x100010fe:    d300        ..      BCC      0x10001102 ; Light_StatSampleACVariety + 146
        0x10001100:    4602        .F      MOV      r2,r0
        0x10001102:    81e2        ..      STRH     r2,[r4,#0xe]
        0x10001104:    8a20         .      LDRH     r0,[r4,#0x10]
        0x10001106:    2800        .(      CMP      r0,#0
        0x10001108:    d06f        o.      BEQ      0x100011ea ; Light_StatSampleACVariety + 378
        0x1000110a:    8a62        b.      LDRH     r2,[r4,#0x12]
        0x1000110c:    2a00        .*      CMP      r2,#0
        0x1000110e:    d0fb        ..      BEQ      0x10001108 ; Light_StatSampleACVariety + 152
        0x10001110:    894d        M.      LDRH     r5,[r1,#0xa]
        0x10001112:    42a8        .B      CMP      r0,r5
        0x10001114:    d200        ..      BCS      0x10001118 ; Light_StatSampleACVariety + 168
        0x10001116:    4628        (F      MOV      r0,r5
        0x10001118:    8220         .      STRH     r0,[r4,#0x10]
        0x1000111a:    8948        H.      LDRH     r0,[r1,#0xa]
        0x1000111c:    4282        .B      CMP      r2,r0
        0x1000111e:    d300        ..      BCC      0x10001122 ; Light_StatSampleACVariety + 178
        0x10001120:    4602        .F      MOV      r2,r0
        0x10001122:    8262        b.      STRH     r2,[r4,#0x12]
        0x10001124:    890a        ..      LDRH     r2,[r1,#8]
        0x10001126:    6a60        `j      LDR      r0,[r4,#0x24]
        0x10001128:    1e5b        [.      SUBS     r3,r3,#1
        0x1000112a:    1882        ..      ADDS     r2,r0,r2
        0x1000112c:    6262        bb      STR      r2,[r4,#0x24]
        0x1000112e:    894d        M.      LDRH     r5,[r1,#0xa]
        0x10001130:    6aa0        .j      LDR      r0,[r4,#0x28]
        0x10001132:    1940        @.      ADDS     r0,r0,r5
        0x10001134:    62a0        .b      STR      r0,[r4,#0x28]
        0x10001136:    898d        ..      LDRH     r5,[r1,#0xc]
        0x10001138:    69e0        .i      LDR      r0,[r4,#0x1c]
        0x1000113a:    1940        @.      ADDS     r0,r0,r5
        0x1000113c:    61e0        .a      STR      r0,[r4,#0x1c]
        0x1000113e:    89cd        ..      LDRH     r5,[r1,#0xe]
        0x10001140:    6a20         j      LDR      r0,[r4,#0x20]
        0x10001142:    1940        @.      ADDS     r0,r0,r5
        0x10001144:    6220         b      STR      r0,[r4,#0x20]
        0x10001146:    b218        ..      SXTH     r0,r3
        0x10001148:    2300        .#      MOVS     r3,#0
        0x1000114a:    8060        `.      STRH     r0,[r4,#2]
        0x1000114c:    7063        cp      STRB     r3,[r4,#1]
        0x1000114e:    2800        .(      CMP      r0,#0
        0x10001150:    dca0        ..      BGT      0x10001094 ; Light_StatSampleACVariety + 36
        0x10001152:    2001        .       MOVS     r0,#1
        0x10001154:    7060        `p      STRB     r0,[r4,#1]
        0x10001156:    88a0        ..      LDRH     r0,[r4,#4]
        0x10001158:    88e3        ..      LDRH     r3,[r4,#6]
        0x1000115a:    1ac0        ..      SUBS     r0,r0,r3
        0x1000115c:    82a0        ..      STRH     r0,[r4,#0x14]
        0x1000115e:    8920         .      LDRH     r0,[r4,#8]
        0x10001160:    8963        c.      LDRH     r3,[r4,#0xa]
        0x10001162:    1ac0        ..      SUBS     r0,r0,r3
        0x10001164:    82e0        ..      STRH     r0,[r4,#0x16]
        0x10001166:    89a0        ..      LDRH     r0,[r4,#0xc]
        0x10001168:    89e3        ..      LDRH     r3,[r4,#0xe]
        0x1000116a:    1ac0        ..      SUBS     r0,r0,r3
        0x1000116c:    8320         .      STRH     r0,[r4,#0x18]
        0x1000116e:    8a20         .      LDRH     r0,[r4,#0x10]
        0x10001170:    8a63        c.      LDRH     r3,[r4,#0x12]
        0x10001172:    1ac0        ..      SUBS     r0,r0,r3
        0x10001174:    8360        `.      STRH     r0,[r4,#0x1a]
        0x10001176:    4857        WH      LDR      r0,[pc,#348] ; [0x100012d4] = 0x40040000
        0x10001178:    6002        .`      STR      r2,[r0,#0]
        0x1000117a:    2232        2"      MOVS     r2,#0x32
        0x1000117c:    6042        B`      STR      r2,[r0,#4]
        0x1000117e:    6882        .h      LDR      r2,[r0,#8]
        0x10001180:    6262        bb      STR      r2,[r4,#0x24]
        0x10001182:    6aa2        .j      LDR      r2,[r4,#0x28]
        0x10001184:    6002        .`      STR      r2,[r0,#0]
        0x10001186:    6882        .h      LDR      r2,[r0,#8]
        0x10001188:    62a2        .b      STR      r2,[r4,#0x28]
        0x1000118a:    69e2        .i      LDR      r2,[r4,#0x1c]
        0x1000118c:    6002        .`      STR      r2,[r0,#0]
        0x1000118e:    6882        .h      LDR      r2,[r0,#8]
        0x10001190:    61e2        .a      STR      r2,[r4,#0x1c]
        0x10001192:    6a22        "j      LDR      r2,[r4,#0x20]
        0x10001194:    6002        .`      STR      r2,[r0,#0]
        0x10001196:    6885        .h      LDR      r5,[r0,#8]
        0x10001198:    6225        %b      STR      r5,[r4,#0x20]
        0x1000119a:    6a63        cj      LDR      r3,[r4,#0x24]
        0x1000119c:    1500        ..      ASRS     r0,r0,#20
        0x1000119e:    4283        .B      CMP      r3,r0
        0x100011a0:    db67        g.      BLT      0x10001272 ; Light_StatSampleACVariety + 514
        0x100011a2:    6aa2        .j      LDR      r2,[r4,#0x28]
        0x100011a4:    4282        .B      CMP      r2,r0
        0x100011a6:    e001        ..      B        0x100011ac ; Light_StatSampleACVariety + 316
        0x100011a8:    e068        h.      B        0x1000127c ; Light_StatSampleACVariety + 524
        0x100011aa:    e06c        l.      B        0x10001286 ; Light_StatSampleACVariety + 534
        0x100011ac:    db61        a.      BLT      0x10001272 ; Light_StatSampleACVariety + 514
        0x100011ae:    2018        .       MOVS     r0,#0x18
        0x100011b0:    888e        ..      LDRH     r6,[r1,#4]
        0x100011b2:    5e20         ^      LDRSH    r0,[r4,r0]
        0x100011b4:    0876        v.      LSRS     r6,r6,#1
        0x100011b6:    42b0        .B      CMP      r0,r6
        0x100011b8:    dd05        ..      BLE      0x100011c6 ; Light_StatSampleACVariety + 342
        0x100011ba:    261a        .&      MOVS     r6,#0x1a
        0x100011bc:    88c9        ..      LDRH     r1,[r1,#6]
        0x100011be:    5fa6        ._      LDRSH    r6,[r4,r6]
        0x100011c0:    0849        I.      LSRS     r1,r1,#1
        0x100011c2:    428e        .B      CMP      r6,r1
        0x100011c4:    dc55        U.      BGT      0x10001272 ; Light_StatSampleACVariety + 514
        0x100011c6:    2114        .!      MOVS     r1,#0x14
        0x100011c8:    69e6        .i      LDR      r6,[r4,#0x1c]
        0x100011ca:    5e61        a^      LDRSH    r1,[r4,r1]
        0x100011cc:    46b4        .F      MOV      r12,r6
        0x100011ce:    0076        v.      LSLS     r6,r6,#1
        0x100011d0:    468e        .F      MOV      lr,r1
        0x100011d2:    42b1        .B      CMP      r1,r6
        0x100011d4:    dd04        ..      BLE      0x100011e0 ; Light_StatSampleACVariety + 368
        0x100011d6:    2616        .&      MOVS     r6,#0x16
        0x100011d8:    5fa6        ._      LDRSH    r6,[r4,r6]
        0x100011da:    0069        i.      LSLS     r1,r5,#1
        0x100011dc:    428e        .B      CMP      r6,r1
        0x100011de:    dc48        H.      BGT      0x10001272 ; Light_StatSampleACVariety + 514
        0x100011e0:    2605        .&      MOVS     r6,#5
        0x100011e2:    0376        v.      LSLS     r6,r6,#13
        0x100011e4:    45b4        .E      CMP      r12,r6
        0x100011e6:    e001        ..      B        0x100011ec ; Light_StatSampleACVariety + 380
        0x100011e8:    e052        R.      B        0x10001290 ; Light_StatSampleACVariety + 544
        0x100011ea:    e056        V.      B        0x1000129a ; Light_StatSampleACVariety + 554
        0x100011ec:    dc41        A.      BGT      0x10001272 ; Light_StatSampleACVariety + 514
        0x100011ee:    42b5        .B      CMP      r5,r6
        0x100011f0:    dc3f        ?.      BGT      0x10001272 ; Light_StatSampleACVariety + 514
        0x100011f2:    2601        .&      MOVS     r6,#1
        0x100011f4:    02f6        ..      LSLS     r6,r6,#11
        0x100011f6:    45b4        .E      CMP      r12,r6
        0x100011f8:    db54        T.      BLT      0x100012a4 ; Light_StatSampleACVariety + 564
        0x100011fa:    42b5        .B      CMP      r5,r6
        0x100011fc:    db52        R.      BLT      0x100012a4 ; Light_StatSampleACVariety + 564
        0x100011fe:    10b1        ..      ASRS     r1,r6,#2
        0x10001200:    4288        .B      CMP      r0,r1
        0x10001202:    dd03        ..      BLE      0x1000120c ; Light_StatSampleACVariety + 412
        0x10001204:    251a        .%      MOVS     r5,#0x1a
        0x10001206:    5f65        e_      LDRSH    r5,[r4,r5]
        0x10001208:    428d        .B      CMP      r5,r1
        0x1000120a:    dc4b        K.      BGT      0x100012a4 ; Light_StatSampleACVariety + 564
        0x1000120c:    4586        .E      CMP      lr,r0
        0x1000120e:    dd49        I.      BLE      0x100012a4 ; Light_StatSampleACVariety + 564
        0x10001210:    2116        .!      MOVS     r1,#0x16
        0x10001212:    5e61        a^      LDRSH    r1,[r4,r1]
        0x10001214:    251a        .%      MOVS     r5,#0x1a
        0x10001216:    5f65        e_      LDRSH    r5,[r4,r5]
        0x10001218:    468c        .F      MOV      r12,r1
        0x1000121a:    42a9        .B      CMP      r1,r5
        0x1000121c:    dd42        B.      BLE      0x100012a4 ; Light_StatSampleACVariety + 564
        0x1000121e:    125e        ^.      ASRS     r6,r3,#9
        0x10001220:    4286        .B      CMP      r6,r0
        0x10001222:    dc02        ..      BGT      0x1000122a ; Light_StatSampleACVariety + 442
        0x10001224:    1256        V.      ASRS     r6,r2,#9
        0x10001226:    42ae        .B      CMP      r6,r5
        0x10001228:    dd00        ..      BLE      0x1000122c ; Light_StatSampleACVariety + 444
        0x1000122a:    2701        .'      MOVS     r7,#1
        0x1000122c:    2605        .&      MOVS     r6,#5
        0x1000122e:    0376        v.      LSLS     r6,r6,#13
        0x10001230:    42b3        .B      CMP      r3,r6
        0x10001232:    dd08        ..      BLE      0x10001246 ; Light_StatSampleACVariety + 470
        0x10001234:    4e28        (N      LDR      r6,[pc,#160] ; [0x100012d8] = 0x413c
        0x10001236:    8871        q.      LDRH     r1,[r6,#2]
        0x10001238:    2619        .&      MOVS     r6,#0x19
        0x1000123a:    01b6        ..      LSLS     r6,r6,#6
        0x1000123c:    42b1        .B      CMP      r1,r6
        0x1000123e:    d202        ..      BCS      0x10001246 ; Light_StatSampleACVariety + 470
        0x10001240:    1219        ..      ASRS     r1,r3,#8
        0x10001242:    4281        .B      CMP      r1,r0
        0x10001244:    dc0c        ..      BGT      0x10001260 ; Light_StatSampleACVariety + 496
        0x10001246:    2105        .!      MOVS     r1,#5
        0x10001248:    0349        I.      LSLS     r1,r1,#13
        0x1000124a:    428a        .B      CMP      r2,r1
        0x1000124c:    dd09        ..      BLE      0x10001262 ; Light_StatSampleACVariety + 498
        0x1000124e:    4922        "I      LDR      r1,[pc,#136] ; [0x100012d8] = 0x413c
        0x10001250:    2319        .#      MOVS     r3,#0x19
        0x10001252:    888e        ..      LDRH     r6,[r1,#4]
        0x10001254:    019b        ..      LSLS     r3,r3,#6
        0x10001256:    429e        .B      CMP      r6,r3
        0x10001258:    d203        ..      BCS      0x10001262 ; Light_StatSampleACVariety + 498
        0x1000125a:    1211        ..      ASRS     r1,r2,#8
        0x1000125c:    42a9        .B      CMP      r1,r5
        0x1000125e:    dd00        ..      BLE      0x10001262 ; Light_StatSampleACVariety + 498
        0x10001260:    2701        .'      MOVS     r7,#1
        0x10001262:    0040        @.      LSLS     r0,r0,#1
        0x10001264:    4586        .E      CMP      lr,r0
        0x10001266:    dc04        ..      BGT      0x10001272 ; Light_StatSampleACVariety + 514
        0x10001268:    0069        i.      LSLS     r1,r5,#1
        0x1000126a:    458c        .E      CMP      r12,r1
        0x1000126c:    dc01        ..      BGT      0x10001272 ; Light_StatSampleACVariety + 514
        0x1000126e:    2f00        ./      CMP      r7,#0
        0x10001270:    d018        ..      BEQ      0x100012a4 ; Light_StatSampleACVariety + 564
        0x10001272:    7820         x      LDRB     r0,[r4,#0]
        0x10001274:    2802        .(      CMP      r0,#2
        0x10001276:    d21a        ..      BCS      0x100012ae ; Light_StatSampleACVariety + 574
        0x10001278:    1c40        @.      ADDS     r0,r0,#1
        0x1000127a:    e017        ..      B        0x100012ac ; Light_StatSampleACVariety + 572
        0x1000127c:    8988        ..      LDRH     r0,[r1,#0xc]
        0x1000127e:    80a0        ..      STRH     r0,[r4,#4]
        0x10001280:    8988        ..      LDRH     r0,[r1,#0xc]
        0x10001282:    80e0        ..      STRH     r0,[r4,#6]
        0x10001284:    e71e        ..      B        0x100010c4 ; Light_StatSampleACVariety + 84
        0x10001286:    89c8        ..      LDRH     r0,[r1,#0xe]
        0x10001288:    8120         .      STRH     r0,[r4,#8]
        0x1000128a:    89c8        ..      LDRH     r0,[r1,#0xe]
        0x1000128c:    8160        `.      STRH     r0,[r4,#0xa]
        0x1000128e:    e729        ).      B        0x100010e4 ; Light_StatSampleACVariety + 116
        0x10001290:    8908        ..      LDRH     r0,[r1,#8]
        0x10001292:    81a0        ..      STRH     r0,[r4,#0xc]
        0x10001294:    8908        ..      LDRH     r0,[r1,#8]
        0x10001296:    81e0        ..      STRH     r0,[r4,#0xe]
        0x10001298:    e734        4.      B        0x10001104 ; Light_StatSampleACVariety + 148
        0x1000129a:    8948        H.      LDRH     r0,[r1,#0xa]
        0x1000129c:    8220         .      STRH     r0,[r4,#0x10]
        0x1000129e:    8948        H.      LDRH     r0,[r1,#0xa]
        0x100012a0:    8260        `.      STRH     r0,[r4,#0x12]
        0x100012a2:    e73f        ?.      B        0x10001124 ; Light_StatSampleACVariety + 180
        0x100012a4:    7820         x      LDRB     r0,[r4,#0]
        0x100012a6:    2800        .(      CMP      r0,#0
        0x100012a8:    d001        ..      BEQ      0x100012ae ; Light_StatSampleACVariety + 574
        0x100012aa:    1e40        @.      SUBS     r0,r0,#1
        0x100012ac:    7020         p      STRB     r0,[r4,#0]
        0x100012ae:    2000        .       MOVS     r0,#0
        0x100012b0:    80a0        ..      STRH     r0,[r4,#4]
        0x100012b2:    80e0        ..      STRH     r0,[r4,#6]
        0x100012b4:    8120         .      STRH     r0,[r4,#8]
        0x100012b6:    8160        `.      STRH     r0,[r4,#0xa]
        0x100012b8:    81a0        ..      STRH     r0,[r4,#0xc]
        0x100012ba:    81e0        ..      STRH     r0,[r4,#0xe]
        0x100012bc:    8220         .      STRH     r0,[r4,#0x10]
        0x100012be:    8260        `.      STRH     r0,[r4,#0x12]
        0x100012c0:    6260        `b      STR      r0,[r4,#0x24]
        0x100012c2:    62a0        .b      STR      r0,[r4,#0x28]
        0x100012c4:    61e0        .a      STR      r0,[r4,#0x1c]
        0x100012c6:    6220         b      STR      r0,[r4,#0x20]
        0x100012c8:    2032        2       MOVS     r0,#0x32
        0x100012ca:    8060        `.      STRH     r0,[r4,#2]
        0x100012cc:    bdf8        ..      POP      {r3-r7,pc}
    $d
        0x100012ce:    0000        ..      DCW    0
        0x100012d0:    00004178    xA..    DCD    16760
        0x100012d4:    40040000    ...@    DCD    1074003968
        0x100012d8:    0000413c    <A..    DCD    16700
    $t
    i.NMI_Handler
    NMI_Handler
        0x100012dc:    e7fe        ..      B        NMI_Handler ; 0x100012dc
        0x100012de:    0000        ..      MOVS     r0,r0
    i.OP2_OutPadConfig
    OP2_OutPadConfig
        0x100012e0:    4904        .I      LDR      r1,[pc,#16] ; [0x100012f4] = 0x40150040
        0x100012e2:    6a4a        Jj      LDR      r2,[r1,#0x24]
        0x100012e4:    0780        ..      LSLS     r0,r0,#30
        0x100012e6:    0892        ..      LSRS     r2,r2,#2
        0x100012e8:    0092        ..      LSLS     r2,r2,#2
        0x100012ea:    0f80        ..      LSRS     r0,r0,#30
        0x100012ec:    4302        .C      ORRS     r2,r2,r0
        0x100012ee:    624a        Jb      STR      r2,[r1,#0x24]
        0x100012f0:    4770        pG      BX       lr
    $d
        0x100012f2:    0000        ..      DCW    0
        0x100012f4:    40150040    @..@    DCD    1075118144
    $t
    i.OP2_VinPadConfig
    OP2_VinPadConfig
        0x100012f8:    4904        .I      LDR      r1,[pc,#16] ; [0x1000130c] = 0x40150040
        0x100012fa:    6a0a        .j      LDR      r2,[r1,#0x20]
        0x100012fc:    230c        .#      MOVS     r3,#0xc
        0x100012fe:    0780        ..      LSLS     r0,r0,#30
        0x10001300:    439a        .C      BICS     r2,r2,r3
        0x10001302:    0f00        ..      LSRS     r0,r0,#28
        0x10001304:    4302        .C      ORRS     r2,r2,r0
        0x10001306:    620a        .b      STR      r2,[r1,#0x20]
        0x10001308:    4770        pG      BX       lr
    $d
        0x1000130a:    0000        ..      DCW    0
        0x1000130c:    40150040    @..@    DCD    1075118144
    $t
    i.OP2_VipPadConfig
    OP2_VipPadConfig
        0x10001310:    4904        .I      LDR      r1,[pc,#16] ; [0x10001324] = 0x40150040
        0x10001312:    6a0a        .j      LDR      r2,[r1,#0x20]
        0x10001314:    0780        ..      LSLS     r0,r0,#30
        0x10001316:    0892        ..      LSRS     r2,r2,#2
        0x10001318:    0092        ..      LSLS     r2,r2,#2
        0x1000131a:    0f80        ..      LSRS     r0,r0,#30
        0x1000131c:    4302        .C      ORRS     r2,r2,r0
        0x1000131e:    620a        .b      STR      r2,[r1,#0x20]
        0x10001320:    4770        pG      BX       lr
    $d
        0x10001322:    0000        ..      DCW    0
        0x10001324:    40150040    @..@    DCD    1075118144
    $t
    i.OPA_Enable
    OPA_Enable
        0x10001328:    b50c        ..      PUSH     {r2,r3,lr}
        0x1000132a:    4a07        .J      LDR      r2,[pc,#28] ; [0x10001348] = 0x1000238c
        0x1000132c:    6891        .h      LDR      r1,[r2,#8]
        0x1000132e:    68d2        .h      LDR      r2,[r2,#0xc]
        0x10001330:    9100        ..      STR      r1,[sp,#0]
        0x10001332:    0081        ..      LSLS     r1,r0,#2
        0x10001334:    9201        ..      STR      r2,[sp,#4]
        0x10001336:    4668        hF      MOV      r0,sp
        0x10001338:    5840        @X      LDR      r0,[r0,r1]
        0x1000133a:    6801        .h      LDR      r1,[r0,#0]
        0x1000133c:    2201        ."      MOVS     r2,#1
        0x1000133e:    0392        ..      LSLS     r2,r2,#14
        0x10001340:    4311        .C      ORRS     r1,r1,r2
        0x10001342:    6001        .`      STR      r1,[r0,#0]
        0x10001344:    bd0c        ..      POP      {r2,r3,pc}
    $d
        0x10001346:    0000        ..      DCW    0
        0x10001348:    1000238c    .#..    DCD    268444556
    $t
    i.OPA_Init
    OPA_Init
        0x1000134c:    b5fc        ..      PUSH     {r2-r7,lr}
        0x1000134e:    4b3b        ;K      LDR      r3,[pc,#236] ; [0x1000143c] = 0x1000238c
        0x10001350:    2801        .(      CMP      r0,#1
        0x10001352:    cb0c        ..      LDM      r3,{r2,r3}
        0x10001354:    9301        ..      STR      r3,[sp,#4]
        0x10001356:    9200        ..      STR      r2,[sp,#0]
        0x10001358:    d85b        [.      BHI      0x10001412 ; OPA_Init + 198
        0x1000135a:    2401        .$      MOVS     r4,#1
        0x1000135c:    0424        $.      LSLS     r4,r4,#16
        0x1000135e:    798f        .y      LDRB     r7,[r1,#6]
        0x10001360:    0065        e.      LSLS     r5,r4,#1
        0x10001362:    00a6        ..      LSLS     r6,r4,#2
        0x10001364:    0083        ..      LSLS     r3,r0,#2
        0x10001366:    466a        jF      MOV      r2,sp
        0x10001368:    2f01        ./      CMP      r7,#1
        0x1000136a:    d053        S.      BEQ      0x10001414 ; OPA_Init + 200
        0x1000136c:    2f02        ./      CMP      r7,#2
        0x1000136e:    d05b        [.      BEQ      0x10001428 ; OPA_Init + 220
        0x10001370:    58d0        .X      LDR      r0,[r2,r3]
        0x10001372:    2f03        ./      CMP      r7,#3
        0x10001374:    6807        .h      LDR      r7,[r0,#0]
        0x10001376:    d05e        ^.      BEQ      0x10001436 ; OPA_Init + 234
        0x10001378:    43a7        .C      BICS     r7,r7,r4
        0x1000137a:    6007        .`      STR      r7,[r0,#0]
        0x1000137c:    6804        .h      LDR      r4,[r0,#0]
        0x1000137e:    43ac        .C      BICS     r4,r4,r5
        0x10001380:    6004        .`      STR      r4,[r0,#0]
        0x10001382:    6804        .h      LDR      r4,[r0,#0]
        0x10001384:    43b4        .C      BICS     r4,r4,r6
        0x10001386:    6004        .`      STR      r4,[r0,#0]
        0x10001388:    58d0        .X      LDR      r0,[r2,r3]
        0x1000138a:    6802        .h      LDR      r2,[r0,#0]
        0x1000138c:    784b        Kx      LDRB     r3,[r1,#1]
        0x1000138e:    0852        R.      LSRS     r2,r2,#1
        0x10001390:    0052        R.      LSLS     r2,r2,#1
        0x10001392:    07db        ..      LSLS     r3,r3,#31
        0x10001394:    0fdb        ..      LSRS     r3,r3,#31
        0x10001396:    431a        .C      ORRS     r2,r2,r3
        0x10001398:    6002        .`      STR      r2,[r0,#0]
        0x1000139a:    6802        .h      LDR      r2,[r0,#0]
        0x1000139c:    230e        .#      MOVS     r3,#0xe
        0x1000139e:    439a        .C      BICS     r2,r2,r3
        0x100013a0:    788b        .x      LDRB     r3,[r1,#2]
        0x100013a2:    075b        [.      LSLS     r3,r3,#29
        0x100013a4:    0f1b        ..      LSRS     r3,r3,#28
        0x100013a6:    431a        .C      ORRS     r2,r2,r3
        0x100013a8:    6002        .`      STR      r2,[r0,#0]
        0x100013aa:    6802        .h      LDR      r2,[r0,#0]
        0x100013ac:    2310        .#      MOVS     r3,#0x10
        0x100013ae:    439a        .C      BICS     r2,r2,r3
        0x100013b0:    780b        .x      LDRB     r3,[r1,#0]
        0x100013b2:    07db        ..      LSLS     r3,r3,#31
        0x100013b4:    0edb        ..      LSRS     r3,r3,#27
        0x100013b6:    431a        .C      ORRS     r2,r2,r3
        0x100013b8:    6002        .`      STR      r2,[r0,#0]
        0x100013ba:    6802        .h      LDR      r2,[r0,#0]
        0x100013bc:    2360        `#      MOVS     r3,#0x60
        0x100013be:    439a        .C      BICS     r2,r2,r3
        0x100013c0:    794b        Ky      LDRB     r3,[r1,#5]
        0x100013c2:    079b        ..      LSLS     r3,r3,#30
        0x100013c4:    0e5b        [.      LSRS     r3,r3,#25
        0x100013c6:    431a        .C      ORRS     r2,r2,r3
        0x100013c8:    6002        .`      STR      r2,[r0,#0]
        0x100013ca:    6802        .h      LDR      r2,[r0,#0]
        0x100013cc:    23ff        .#      MOVS     r3,#0xff
        0x100013ce:    3381        .3      ADDS     r3,r3,#0x81
        0x100013d0:    439a        .C      BICS     r2,r2,r3
        0x100013d2:    790b        .y      LDRB     r3,[r1,#4]
        0x100013d4:    079b        ..      LSLS     r3,r3,#30
        0x100013d6:    0ddb        ..      LSRS     r3,r3,#23
        0x100013d8:    431a        .C      ORRS     r2,r2,r3
        0x100013da:    6002        .`      STR      r2,[r0,#0]
        0x100013dc:    6802        .h      LDR      r2,[r0,#0]
        0x100013de:    2303        .#      MOVS     r3,#3
        0x100013e0:    025b        [.      LSLS     r3,r3,#9
        0x100013e2:    439a        .C      BICS     r2,r2,r3
        0x100013e4:    78cb        .x      LDRB     r3,[r1,#3]
        0x100013e6:    079b        ..      LSLS     r3,r3,#30
        0x100013e8:    0d5b        [.      LSRS     r3,r3,#21
        0x100013ea:    431a        .C      ORRS     r2,r2,r3
        0x100013ec:    6002        .`      STR      r2,[r0,#0]
        0x100013ee:    6802        .h      LDR      r2,[r0,#0]
        0x100013f0:    2301        .#      MOVS     r3,#1
        0x100013f2:    02db        ..      LSLS     r3,r3,#11
        0x100013f4:    439a        .C      BICS     r2,r2,r3
        0x100013f6:    7a0b        .z      LDRB     r3,[r1,#8]
        0x100013f8:    07db        ..      LSLS     r3,r3,#31
        0x100013fa:    0d1b        ..      LSRS     r3,r3,#20
        0x100013fc:    431a        .C      ORRS     r2,r2,r3
        0x100013fe:    6002        .`      STR      r2,[r0,#0]
        0x10001400:    6802        .h      LDR      r2,[r0,#0]
        0x10001402:    2301        .#      MOVS     r3,#1
        0x10001404:    79c9        .y      LDRB     r1,[r1,#7]
        0x10001406:    031b        ..      LSLS     r3,r3,#12
        0x10001408:    07c9        ..      LSLS     r1,r1,#31
        0x1000140a:    439a        .C      BICS     r2,r2,r3
        0x1000140c:    0cc9        ..      LSRS     r1,r1,#19
        0x1000140e:    430a        .C      ORRS     r2,r2,r1
        0x10001410:    6002        .`      STR      r2,[r0,#0]
        0x10001412:    bdfc        ..      POP      {r2-r7,pc}
        0x10001414:    58d0        .X      LDR      r0,[r2,r3]
        0x10001416:    6807        .h      LDR      r7,[r0,#0]
        0x10001418:    43a7        .C      BICS     r7,r7,r4
        0x1000141a:    6007        .`      STR      r7,[r0,#0]
        0x1000141c:    6804        .h      LDR      r4,[r0,#0]
        0x1000141e:    43ac        .C      BICS     r4,r4,r5
        0x10001420:    6004        .`      STR      r4,[r0,#0]
        0x10001422:    6804        .h      LDR      r4,[r0,#0]
        0x10001424:    4334        4C      ORRS     r4,r4,r6
        0x10001426:    e7ae        ..      B        0x10001386 ; OPA_Init + 58
        0x10001428:    58d0        .X      LDR      r0,[r2,r3]
        0x1000142a:    6807        .h      LDR      r7,[r0,#0]
        0x1000142c:    43a7        .C      BICS     r7,r7,r4
        0x1000142e:    6007        .`      STR      r7,[r0,#0]
        0x10001430:    6804        .h      LDR      r4,[r0,#0]
        0x10001432:    432c        ,C      ORRS     r4,r4,r5
        0x10001434:    e7a4        ..      B        0x10001380 ; OPA_Init + 52
        0x10001436:    4327        'C      ORRS     r7,r7,r4
        0x10001438:    e79f        ..      B        0x1000137a ; OPA_Init + 46
    $d
        0x1000143a:    0000        ..      DCW    0
        0x1000143c:    1000238c    .#..    DCD    268444556
    $t
    i.PendSV_Handler
    PendSV_Handler
        0x10001440:    e7fe        ..      B        PendSV_Handler ; 0x10001440
        0x10001442:    0000        ..      MOVS     r0,r0
    i.PeripheralsRxDmaConfig
    PeripheralsRxDmaConfig
        0x10001444:    b5f0        ..      PUSH     {r4-r7,lr}
        0x10001446:    9e05        ..      LDR      r6,[sp,#0x14]
        0x10001448:    4f18        .O      LDR      r7,[pc,#96] ; [0x100014ac] = 0x40200100
        0x1000144a:    4605        .F      MOV      r5,r0
        0x1000144c:    00b6        ..      LSLS     r6,r6,#2
        0x1000144e:    2080        .       MOVS     r0,#0x80
        0x10001450:    19f6        ..      ADDS     r6,r6,r7
        0x10001452:    4318        .C      ORRS     r0,r0,r3
        0x10001454:    9c08        ..      LDR      r4,[sp,#0x20]
        0x10001456:    6030        0`      STR      r0,[r6,#0]
        0x10001458:    4816        .H      LDR      r0,[pc,#88] ; [0x100014b4] = 0x40200000
        0x1000145a:    009f        ..      LSLS     r7,r3,#2
        0x1000145c:    4e14        .N      LDR      r6,[pc,#80] ; [0x100014b0] = 0x4000021f
        0x1000145e:    1838        8.      ADDS     r0,r7,r0
        0x10001460:    6006        .`      STR      r6,[r0,#0]
        0x10001462:    9e06        ..      LDR      r6,[sp,#0x18]
        0x10001464:    6406        .d      STR      r6,[r0,#0x40]
        0x10001466:    4814        .H      LDR      r0,[pc,#80] ; [0x100014b8] = 0x40200200
        0x10001468:    011e        ..      LSLS     r6,r3,#4
        0x1000146a:    1830        0.      ADDS     r0,r6,r0
        0x1000146c:    6085        .`      STR      r5,[r0,#8]
        0x1000146e:    6041        A`      STR      r1,[r0,#4]
        0x10001470:    2103        .!      MOVS     r1,#3
        0x10001472:    04d2        ..      LSLS     r2,r2,#19
        0x10001474:    0749        I.      LSLS     r1,r1,#29
        0x10001476:    0cd2        ..      LSRS     r2,r2,#19
        0x10001478:    4311        .C      ORRS     r1,r1,r2
        0x1000147a:    2207        ."      MOVS     r2,#7
        0x1000147c:    0412        ..      LSLS     r2,r2,#16
        0x1000147e:    4391        .C      BICS     r1,r1,r2
        0x10001480:    0762        b.      LSLS     r2,r4,#29
        0x10001482:    0b52        R.      LSRS     r2,r2,#13
        0x10001484:    4311        .C      ORRS     r1,r1,r2
        0x10001486:    2203        ."      MOVS     r2,#3
        0x10001488:    0392        ..      LSLS     r2,r2,#14
        0x1000148a:    4391        .C      BICS     r1,r1,r2
        0x1000148c:    9a07        ..      LDR      r2,[sp,#0x1c]
        0x1000148e:    0792        ..      LSLS     r2,r2,#30
        0x10001490:    0c12        ..      LSRS     r2,r2,#16
        0x10001492:    4311        .C      ORRS     r1,r1,r2
        0x10001494:    2201        ."      MOVS     r2,#1
        0x10001496:    0552        R.      LSLS     r2,r2,#21
        0x10001498:    4391        .C      BICS     r1,r1,r2
        0x1000149a:    9a09        ..      LDR      r2,[sp,#0x24]
        0x1000149c:    07d2        ..      LSLS     r2,r2,#31
        0x1000149e:    0a92        ..      LSRS     r2,r2,#10
        0x100014a0:    4311        .C      ORRS     r1,r1,r2
        0x100014a2:    60c1        .`      STR      r1,[r0,#0xc]
        0x100014a4:    4618        .F      MOV      r0,r3
        0x100014a6:    f7fffa9b    ....    BL       DMA_StartChannel ; 0x100009e0
        0x100014aa:    bdf0        ..      POP      {r4-r7,pc}
    $d
        0x100014ac:    40200100    .. @    DCD    1075839232
        0x100014b0:    4000021f    ...@    DCD    1073742367
        0x100014b4:    40200000    .. @    DCD    1075838976
        0x100014b8:    40200200    .. @    DCD    1075839488
    $t
    i.PrintInit
    PrintInit
        0x100014bc:    4770        pG      BX       lr
        0x100014be:    0000        ..      MOVS     r0,r0
    i.Process_FixedSmoothFilter
    Process_FixedSmoothFilter
        0x100014c0:    b5f7        ..      PUSH     {r0-r2,r4-r7,lr}
        0x100014c2:    4840        @H      LDR      r0,[pc,#256] ; [0x100015c4] = 0x4142
        0x100014c4:    2700        .'      MOVS     r7,#0
        0x100014c6:    7840        @x      LDRB     r0,[r0,#1]
        0x100014c8:    4c3f        ?L      LDR      r4,[pc,#252] ; [0x100015c8] = 0x439c
        0x100014ca:    b08a        ..      SUB      sp,sp,#0x28
        0x100014cc:    4615        .F      MOV      r5,r2
        0x100014ce:    460e        .F      MOV      r6,r1
        0x100014d0:    2801        .(      CMP      r0,#1
        0x100014d2:    d001        ..      BEQ      0x100014d8 ; Process_FixedSmoothFilter + 24
        0x100014d4:    6820         h      LDR      r0,[r4,#0]
        0x100014d6:    e018        ..      B        0x1000150a ; Process_FixedSmoothFilter + 74
        0x100014d8:    2195        .!      MOVS     r1,#0x95
        0x100014da:    0089        ..      LSLS     r1,r1,#2
        0x100014dc:    483a        :H      LDR      r0,[pc,#232] ; [0x100015c8] = 0x439c
        0x100014de:    f7fefe2a    ..*.    BL       __aeabi_memclr ; 0x10000136
        0x100014e2:    2024        $       MOVS     r0,#0x24
        0x100014e4:    8160        `.      STRH     r0,[r4,#0xa]
        0x100014e6:    2048        H       MOVS     r0,#0x48
        0x100014e8:    8120         .      STRH     r0,[r4,#8]
        0x100014ea:    00b8        ..      LSLS     r0,r7,#2
        0x100014ec:    21ff        .!      MOVS     r1,#0xff
        0x100014ee:    1900        ..      ADDS     r0,r0,r4
        0x100014f0:    3131        11      ADDS     r1,r1,#0x31
        0x100014f2:    1c7f        ..      ADDS     r7,r7,#1
        0x100014f4:    500d        .P      STR      r5,[r1,r0]
        0x100014f6:    b23f        ?.      SXTH     r7,r7
        0x100014f8:    60c6        .`      STR      r6,[r0,#0xc]
        0x100014fa:    2f49        I/      CMP      r7,#0x49
        0x100014fc:    dbf5        ..      BLT      0x100014ea ; Process_FixedSmoothFilter + 42
        0x100014fe:    2049        I       MOVS     r0,#0x49
        0x10001500:    4368        hC      MULS     r0,r5,r0
        0x10001502:    6060        ``      STR      r0,[r4,#4]
        0x10001504:    2049        I       MOVS     r0,#0x49
        0x10001506:    4370        pC      MULS     r0,r6,r0
        0x10001508:    6020         `      STR      r0,[r4,#0]
        0x1000150a:    2108        .!      MOVS     r1,#8
        0x1000150c:    5e61        a^      LDRSH    r1,[r4,r1]
        0x1000150e:    4a2f        /J      LDR      r2,[pc,#188] ; [0x100015cc] = 0x40040000
        0x10001510:    0089        ..      LSLS     r1,r1,#2
        0x10001512:    190f        ..      ADDS     r7,r1,r4
        0x10001514:    68f9        .h      LDR      r1,[r7,#0xc]
        0x10001516:    1a71        q.      SUBS     r1,r6,r1
        0x10001518:    1841        A.      ADDS     r1,r0,r1
        0x1000151a:    6021        !`      STR      r1,[r4,#0]
        0x1000151c:    20ff        .       MOVS     r0,#0xff
        0x1000151e:    9104        ..      STR      r1,[sp,#0x10]
        0x10001520:    3031        10      ADDS     r0,r0,#0x31
        0x10001522:    59c0        .Y      LDR      r0,[r0,r7]
        0x10001524:    6861        ah      LDR      r1,[r4,#4]
        0x10001526:    1a28        (.      SUBS     r0,r5,r0
        0x10001528:    1808        ..      ADDS     r0,r1,r0
        0x1000152a:    6060        ``      STR      r0,[r4,#4]
        0x1000152c:    9904        ..      LDR      r1,[sp,#0x10]
        0x1000152e:    6011        .`      STR      r1,[r2,#0]
        0x10001530:    2149        I!      MOVS     r1,#0x49
        0x10001532:    6051        Q`      STR      r1,[r2,#4]
        0x10001534:    6891        .h      LDR      r1,[r2,#8]
        0x10001536:    9101        ..      STR      r1,[sp,#4]
        0x10001538:    6010        .`      STR      r0,[r2,#0]
        0x1000153a:    6891        .h      LDR      r1,[r2,#8]
        0x1000153c:    9102        ..      STR      r1,[sp,#8]
        0x1000153e:    210a        .!      MOVS     r1,#0xa
        0x10001540:    5e61        a^      LDRSH    r1,[r4,r1]
        0x10001542:    0089        ..      LSLS     r1,r1,#2
        0x10001544:    190b        ..      ADDS     r3,r1,r4
        0x10001546:    68da        .h      LDR      r2,[r3,#0xc]
        0x10001548:    9901        ..      LDR      r1,[sp,#4]
        0x1000154a:    33ff        .3      ADDS     r3,r3,#0xff
        0x1000154c:    1a51        Q.      SUBS     r1,r2,r1
        0x1000154e:    9103        ..      STR      r1,[sp,#0xc]
        0x10001550:    3301        .3      ADDS     r3,#1
        0x10001552:    6b1a        .k      LDR      r2,[r3,#0x30]
        0x10001554:    9902        ..      LDR      r1,[sp,#8]
        0x10001556:    1a51        Q.      SUBS     r1,r2,r1
        0x10001558:    9100        ..      STR      r1,[sp,#0]
        0x1000155a:    f7feff79    ..y.    BL       __aeabi_i2d ; 0x10000450
        0x1000155e:    9006        ..      STR      r0,[sp,#0x18]
        0x10001560:    9107        ..      STR      r1,[sp,#0x1c]
        0x10001562:    9804        ..      LDR      r0,[sp,#0x10]
        0x10001564:    f7feff74    ..t.    BL       __aeabi_i2d ; 0x10000450
        0x10001568:    9b07        ..      LDR      r3,[sp,#0x1c]
        0x1000156a:    9a06        ..      LDR      r2,[sp,#0x18]
        0x1000156c:    f7fefeec    ....    BL       __aeabi_ddiv ; 0x10000348
        0x10001570:    9105        ..      STR      r1,[sp,#0x14]
        0x10001572:    9004        ..      STR      r0,[sp,#0x10]
        0x10001574:    9800        ..      LDR      r0,[sp,#0]
        0x10001576:    f7feff6b    ..k.    BL       __aeabi_i2d ; 0x10000450
        0x1000157a:    9b05        ..      LDR      r3,[sp,#0x14]
        0x1000157c:    9a04        ..      LDR      r2,[sp,#0x10]
        0x1000157e:    f7fefe7b    ..{.    BL       __aeabi_dmul ; 0x10000278
        0x10001582:    f7feff93    ....    BL       __aeabi_d2iz ; 0x100004ac
        0x10001586:    2108        .!      MOVS     r1,#8
        0x10001588:    60fe        .`      STR      r6,[r7,#0xc]
        0x1000158a:    5e61        a^      LDRSH    r1,[r4,r1]
        0x1000158c:    0089        ..      LSLS     r1,r1,#2
        0x1000158e:    1909        ..      ADDS     r1,r1,r4
        0x10001590:    31ff        .1      ADDS     r1,r1,#0xff
        0x10001592:    3101        .1      ADDS     r1,#1
        0x10001594:    630d        .c      STR      r5,[r1,#0x30]
        0x10001596:    8921        !.      LDRH     r1,[r4,#8]
        0x10001598:    1c49        I.      ADDS     r1,r1,#1
        0x1000159a:    b209        ..      SXTH     r1,r1
        0x1000159c:    8121        !.      STRH     r1,[r4,#8]
        0x1000159e:    2949        I)      CMP      r1,#0x49
        0x100015a0:    db01        ..      BLT      0x100015a6 ; Process_FixedSmoothFilter + 230
        0x100015a2:    2100        .!      MOVS     r1,#0
        0x100015a4:    8121        !.      STRH     r1,[r4,#8]
        0x100015a6:    8961        a.      LDRH     r1,[r4,#0xa]
        0x100015a8:    1c49        I.      ADDS     r1,r1,#1
        0x100015aa:    b209        ..      SXTH     r1,r1
        0x100015ac:    8161        a.      STRH     r1,[r4,#0xa]
        0x100015ae:    2949        I)      CMP      r1,#0x49
        0x100015b0:    db01        ..      BLT      0x100015b6 ; Process_FixedSmoothFilter + 246
        0x100015b2:    2100        .!      MOVS     r1,#0
        0x100015b4:    8161        a.      STRH     r1,[r4,#0xa]
        0x100015b6:    ad01        ..      ADD      r5,sp,#4
        0x100015b8:    cd1c        ..      LDM      r5!,{r2-r4}
        0x100015ba:    990a        ..      LDR      r1,[sp,#0x28]
        0x100015bc:    c110        ..      STM      r1!,{r4}
        0x100015be:    c10d        ..      STM      r1!,{r0,r2,r3}
        0x100015c0:    b00d        ..      ADD      sp,sp,#0x34
        0x100015c2:    bdf0        ..      POP      {r4-r7,pc}
    $d
        0x100015c4:    00004142    BA..    DCD    16706
        0x100015c8:    0000439c    .C..    DCD    17308
        0x100015cc:    40040000    ...@    DCD    1074003968
    $t
    i.Process_LowPassFiltFIR
    Process_LowPassFiltFIR
        0x100015d0:    b5f0        ..      PUSH     {r4-r7,lr}
        0x100015d2:    4605        .F      MOV      r5,r0
        0x100015d4:    b087        ..      SUB      sp,sp,#0x1c
        0x100015d6:    460c        .F      MOV      r4,r1
        0x100015d8:    2000        .       MOVS     r0,#0
        0x100015da:    492c        ,I      LDR      r1,[pc,#176] ; [0x1000168c] = 0x4142
        0x100015dc:    9002        ..      STR      r0,[sp,#8]
        0x100015de:    9001        ..      STR      r0,[sp,#4]
        0x100015e0:    7849        Ix      LDRB     r1,[r1,#1]
        0x100015e2:    2901        .)      CMP      r1,#1
        0x100015e4:    d045        E.      BEQ      0x10001672 ; Process_LowPassFiltFIR + 162
        0x100015e6:    26bc        .&      MOVS     r6,#0xbc
        0x100015e8:    4632        2F      MOV      r2,r6
        0x100015ea:    4621        !F      MOV      r1,r4
        0x100015ec:    1d20         .      ADDS     r0,r4,#4
        0x100015ee:    f7fefd7b    ..{.    BL       ___aeabi_memcpy8$move ; 0x100000e8
        0x100015f2:    4621        !F      MOV      r1,r4
        0x100015f4:    31c0        .1      ADDS     r1,r1,#0xc0
        0x100015f6:    4632        2F      MOV      r2,r6
        0x100015f8:    1d08        ..      ADDS     r0,r1,#4
        0x100015fa:    f7fefd75    ..u.    BL       ___aeabi_memcpy8$move ; 0x100000e8
        0x100015fe:    6868        hh      LDR      r0,[r5,#4]
        0x10001600:    6020         `      STR      r0,[r4,#0]
        0x10001602:    20c0        .       MOVS     r0,#0xc0
        0x10001604:    6829        )h      LDR      r1,[r5,#0]
        0x10001606:    5101        .Q      STR      r1,[r0,r4]
        0x10001608:    2600        .&      MOVS     r6,#0
        0x1000160a:    202f        /       MOVS     r0,#0x2f
        0x1000160c:    1b80        ..      SUBS     r0,r0,r6
        0x1000160e:    00b7        ..      LSLS     r7,r6,#2
        0x10001610:    59e1        .Y      LDR      r1,[r4,r7]
        0x10001612:    0080        ..      LSLS     r0,r0,#2
        0x10001614:    9006        ..      STR      r0,[sp,#0x18]
        0x10001616:    5820         X      LDR      r0,[r4,r0]
        0x10001618:    1808        ..      ADDS     r0,r1,r0
        0x1000161a:    f7feff0d    ....    BL       __aeabi_i2f ; 0x10000438
        0x1000161e:    491c        .I      LDR      r1,[pc,#112] ; [0x10001690] = 0x100023ac
        0x10001620:    59c9        .Y      LDR      r1,[r1,r7]
        0x10001622:    9100        ..      STR      r1,[sp,#0]
        0x10001624:    f7fefdeb    ....    BL       __aeabi_fmul ; 0x100001fe
        0x10001628:    9901        ..      LDR      r1,[sp,#4]
        0x1000162a:    f7fefd8f    ....    BL       __aeabi_fadd ; 0x1000014c
        0x1000162e:    9001        ..      STR      r0,[sp,#4]
        0x10001630:    1938        8.      ADDS     r0,r7,r4
        0x10001632:    3080        .0      ADDS     r0,r0,#0x80
        0x10001634:    6c01        .l      LDR      r1,[r0,#0x40]
        0x10001636:    9806        ..      LDR      r0,[sp,#0x18]
        0x10001638:    1900        ..      ADDS     r0,r0,r4
        0x1000163a:    3080        .0      ADDS     r0,r0,#0x80
        0x1000163c:    6c00        .l      LDR      r0,[r0,#0x40]
        0x1000163e:    1808        ..      ADDS     r0,r1,r0
        0x10001640:    f7fefefa    ....    BL       __aeabi_i2f ; 0x10000438
        0x10001644:    9900        ..      LDR      r1,[sp,#0]
        0x10001646:    f7fefdda    ....    BL       __aeabi_fmul ; 0x100001fe
        0x1000164a:    9902        ..      LDR      r1,[sp,#8]
        0x1000164c:    f7fefd7e    ..~.    BL       __aeabi_fadd ; 0x1000014c
        0x10001650:    1c76        v.      ADDS     r6,r6,#1
        0x10001652:    b2f6        ..      UXTB     r6,r6
        0x10001654:    9002        ..      STR      r0,[sp,#8]
        0x10001656:    2e18        ..      CMP      r6,#0x18
        0x10001658:    d3d7        ..      BCC      0x1000160a ; Process_LowPassFiltFIR + 58
        0x1000165a:    9801        ..      LDR      r0,[sp,#4]
        0x1000165c:    f7feff0c    ....    BL       __aeabi_f2iz ; 0x10000478
        0x10001660:    1280        ..      ASRS     r0,r0,#10
        0x10001662:    6068        h`      STR      r0,[r5,#4]
        0x10001664:    9802        ..      LDR      r0,[sp,#8]
        0x10001666:    f7feff07    ....    BL       __aeabi_f2iz ; 0x10000478
        0x1000166a:    1280        ..      ASRS     r0,r0,#10
        0x1000166c:    6028        (`      STR      r0,[r5,#0]
        0x1000166e:    b007        ..      ADD      sp,sp,#0x1c
        0x10001670:    bdf0        ..      POP      {r4-r7,pc}
        0x10001672:    0081        ..      LSLS     r1,r0,#2
        0x10001674:    686a        jh      LDR      r2,[r5,#4]
        0x10001676:    5062        bP      STR      r2,[r4,r1]
        0x10001678:    1909        ..      ADDS     r1,r1,r4
        0x1000167a:    3180        .1      ADDS     r1,r1,#0x80
        0x1000167c:    1c40        @.      ADDS     r0,r0,#1
        0x1000167e:    682a        *h      LDR      r2,[r5,#0]
        0x10001680:    b2c0        ..      UXTB     r0,r0
        0x10001682:    640a        .d      STR      r2,[r1,#0x40]
        0x10001684:    2830        0(      CMP      r0,#0x30
        0x10001686:    d3f4        ..      BCC      0x10001672 ; Process_LowPassFiltFIR + 162
        0x10001688:    e7be        ..      B        0x10001608 ; Process_LowPassFiltFIR + 56
    $d
        0x1000168a:    0000        ..      DCW    0
        0x1000168c:    00004142    BA..    DCD    16706
        0x10001690:    100023ac    .#..    DCD    268444588
    $t
    i.Process_ResampleSignal
    Process_ResampleSignal
        0x10001694:    b5fe        ..      PUSH     {r1-r7,lr}
        0x10001696:    4604        .F      MOV      r4,r0
        0x10001698:    2001        .       MOVS     r0,#1
        0x1000169a:    4e2c        ,N      LDR      r6,[pc,#176] ; [0x1000174c] = 0x4584
        0x1000169c:    9000        ..      STR      r0,[sp,#0]
        0x1000169e:    2028        (       MOVS     r0,#0x28
        0x100016a0:    4684        .F      MOV      r12,r0
        0x100016a2:    4630        0F      MOV      r0,r6
        0x100016a4:    306c        l0      ADDS     r0,r0,#0x6c
        0x100016a6:    c887        ..      LDM      r0,{r0-r2,r7}
        0x100016a8:    67f0        .g      STR      r0,[r6,#0x7c]
        0x100016aa:    4633        3F      MOV      r3,r6
        0x100016ac:    9001        ..      STR      r0,[sp,#4]
        0x100016ae:    3380        .3      ADDS     r3,r3,#0x80
        0x100016b0:    c386        ..      STM      r3!,{r1,r2,r7}
        0x100016b2:    1d21        !.      ADDS     r1,r4,#4
        0x100016b4:    c90e        ..      LDM      r1,{r1-r3}
        0x100016b6:    4630        0F      MOV      r0,r6
        0x100016b8:    6826        &h      LDR      r6,[r4,#0]
        0x100016ba:    66c6        .f      STR      r6,[r0,#0x6c]
        0x100016bc:    3070        p0      ADDS     r0,r0,#0x70
        0x100016be:    c00e        ..      STM      r0!,{r1-r3}
        0x100016c0:    4f23        #O      LDR      r7,[pc,#140] ; [0x10001750] = 0x4142
        0x100016c2:    2002        .       MOVS     r0,#2
        0x100016c4:    2512        .%      MOVS     r5,#0x12
        0x100016c6:    4661        aF      MOV      r1,r12
        0x100016c8:    5e38        8^      LDRSH    r0,[r7,r0]
        0x100016ca:    f7fefcf9    ....    BL       __aeabi_idiv ; 0x100000c0
        0x100016ce:    2900        .)      CMP      r1,#0
        0x100016d0:    d032        2.      BEQ      0x10001738 ; Process_ResampleSignal + 164
        0x100016d2:    2912        .)      CMP      r1,#0x12
        0x100016d4:    da33        3.      BGE      0x1000173e ; Process_ResampleSignal + 170
        0x100016d6:    1a68        h.      SUBS     r0,r5,r1
        0x100016d8:    b202        ..      SXTH     r2,r0
        0x100016da:    9801        ..      LDR      r0,[sp,#4]
        0x100016dc:    2312        .#      MOVS     r3,#0x12
        0x100016de:    1b80        ..      SUBS     r0,r0,r6
        0x100016e0:    491a        .I      LDR      r1,[pc,#104] ; [0x1000174c] = 0x4584
        0x100016e2:    4350        PC      MULS     r0,r2,r0
        0x100016e4:    435e        ^C      MULS     r6,r3,r6
        0x100016e6:    1983        ..      ADDS     r3,r0,r6
        0x100016e8:    316c        l1      ADDS     r1,r1,#0x6c
        0x100016ea:    481a        .H      LDR      r0,[pc,#104] ; [0x10001754] = 0x40040000
        0x100016ec:    3309        .3      ADDS     r3,r3,#9
        0x100016ee:    6003        .`      STR      r3,[r0,#0]
        0x100016f0:    6045        E`      STR      r5,[r0,#4]
        0x100016f2:    6883        .h      LDR      r3,[r0,#8]
        0x100016f4:    6023        #`      STR      r3,[r4,#0]
        0x100016f6:    694d        Mi      LDR      r5,[r1,#0x14]
        0x100016f8:    684b        Kh      LDR      r3,[r1,#4]
        0x100016fa:    2612        .&      MOVS     r6,#0x12
        0x100016fc:    1aed        ..      SUBS     r5,r5,r3
        0x100016fe:    4355        UC      MULS     r5,r2,r5
        0x10001700:    4373        sC      MULS     r3,r6,r3
        0x10001702:    18eb        ..      ADDS     r3,r5,r3
        0x10001704:    3309        .3      ADDS     r3,r3,#9
        0x10001706:    6003        .`      STR      r3,[r0,#0]
        0x10001708:    6883        .h      LDR      r3,[r0,#8]
        0x1000170a:    6063        c`      STR      r3,[r4,#4]
        0x1000170c:    698d        .i      LDR      r5,[r1,#0x18]
        0x1000170e:    688b        .h      LDR      r3,[r1,#8]
        0x10001710:    1aed        ..      SUBS     r5,r5,r3
        0x10001712:    4355        UC      MULS     r5,r2,r5
        0x10001714:    4373        sC      MULS     r3,r6,r3
        0x10001716:    18eb        ..      ADDS     r3,r5,r3
        0x10001718:    3309        .3      ADDS     r3,r3,#9
        0x1000171a:    6003        .`      STR      r3,[r0,#0]
        0x1000171c:    6883        .h      LDR      r3,[r0,#8]
        0x1000171e:    60a3        .`      STR      r3,[r4,#8]
        0x10001720:    69cb        .i      LDR      r3,[r1,#0x1c]
        0x10001722:    68c9        .h      LDR      r1,[r1,#0xc]
        0x10001724:    1a5b        [.      SUBS     r3,r3,r1
        0x10001726:    4353        SC      MULS     r3,r2,r3
        0x10001728:    2212        ."      MOVS     r2,#0x12
        0x1000172a:    4351        QC      MULS     r1,r2,r1
        0x1000172c:    1859        Y.      ADDS     r1,r3,r1
        0x1000172e:    3109        .1      ADDS     r1,r1,#9
        0x10001730:    6001        .`      STR      r1,[r0,#0]
        0x10001732:    6880        .h      LDR      r0,[r0,#8]
        0x10001734:    60e0        .`      STR      r0,[r4,#0xc]
        0x10001736:    e004        ..      B        0x10001742 ; Process_ResampleSignal + 174
        0x10001738:    2000        .       MOVS     r0,#0
        0x1000173a:    8078        x.      STRH     r0,[r7,#2]
        0x1000173c:    e001        ..      B        0x10001742 ; Process_ResampleSignal + 174
        0x1000173e:    2000        .       MOVS     r0,#0
        0x10001740:    9000        ..      STR      r0,[sp,#0]
        0x10001742:    8878        x.      LDRH     r0,[r7,#2]
        0x10001744:    3012        .0      ADDS     r0,r0,#0x12
        0x10001746:    8078        x.      STRH     r0,[r7,#2]
        0x10001748:    9800        ..      LDR      r0,[sp,#0]
        0x1000174a:    bdfe        ..      POP      {r1-r7,pc}
    $d
        0x1000174c:    00004584    .E..    DCD    17796
        0x10001750:    00004142    BA..    DCD    16706
        0x10001754:    40040000    ...@    DCD    1074003968
    $t
    i.Process_SampleData
    Process_SampleData
        0x10001758:    b570        p.      PUSH     {r4-r6,lr}
        0x1000175a:    4c28        (L      LDR      r4,[pc,#160] ; [0x100017fc] = 0x4204
        0x1000175c:    b088        ..      SUB      sp,sp,#0x20
        0x1000175e:    6860        `h      LDR      r0,[r4,#4]
        0x10001760:    9001        ..      STR      r0,[sp,#4]
        0x10001762:    68e0        .h      LDR      r0,[r4,#0xc]
        0x10001764:    9000        ..      STR      r0,[sp,#0]
        0x10001766:    6820         h      LDR      r0,[r4,#0]
        0x10001768:    9003        ..      STR      r0,[sp,#0xc]
        0x1000176a:    68a0        .h      LDR      r0,[r4,#8]
        0x1000176c:    9002        ..      STR      r0,[sp,#8]
        0x1000176e:    9903        ..      LDR      r1,[sp,#0xc]
        0x10001770:    9801        ..      LDR      r0,[sp,#4]
        0x10001772:    2500        .%      MOVS     r5,#0
        0x10001774:    4288        .B      CMP      r0,r1
        0x10001776:    dd02        ..      BLE      0x1000177e ; Process_SampleData + 38
        0x10001778:    1a40        @.      SUBS     r0,r0,r1
        0x1000177a:    9001        ..      STR      r0,[sp,#4]
        0x1000177c:    e000        ..      B        0x10001780 ; Process_SampleData + 40
        0x1000177e:    9501        ..      STR      r5,[sp,#4]
        0x10001780:    9902        ..      LDR      r1,[sp,#8]
        0x10001782:    9800        ..      LDR      r0,[sp,#0]
        0x10001784:    4288        .B      CMP      r0,r1
        0x10001786:    dd02        ..      BLE      0x1000178e ; Process_SampleData + 54
        0x10001788:    1a40        @.      SUBS     r0,r0,r1
        0x1000178a:    9000        ..      STR      r0,[sp,#0]
        0x1000178c:    e000        ..      B        0x10001790 ; Process_SampleData + 56
        0x1000178e:    9500        ..      STR      r5,[sp,#0]
        0x10001790:    491a        .I      LDR      r1,[pc,#104] ; [0x100017fc] = 0x4204
        0x10001792:    4668        hF      MOV      r0,sp
        0x10001794:    3118        .1      ADDS     r1,r1,#0x18
        0x10001796:    f7ffff1b    ....    BL       Process_LowPassFiltFIR ; 0x100015d0
        0x1000179a:    4668        hF      MOV      r0,sp
        0x1000179c:    f7ffff7a    ..z.    BL       Process_ResampleSignal ; 0x10001694
        0x100017a0:    2801        .(      CMP      r0,#1
        0x100017a2:    d002        ..      BEQ      0x100017aa ; Process_SampleData + 82
        0x100017a4:    2000        .       MOVS     r0,#0
        0x100017a6:    b008        ..      ADD      sp,sp,#0x20
        0x100017a8:    bd70        p.      POP      {r4-r6,pc}
        0x100017aa:    a804        ..      ADD      r0,sp,#0x10
        0x100017ac:    9a01        ..      LDR      r2,[sp,#4]
        0x100017ae:    9900        ..      LDR      r1,[sp,#0]
        0x100017b0:    f7fffe86    ....    BL       Process_FixedSmoothFilter ; 0x100014c0
        0x100017b4:    ae05        ..      ADD      r6,sp,#0x14
        0x100017b6:    ce07        ..      LDM      r6!,{r0-r2}
        0x100017b8:    10c6        ..      ASRS     r6,r0,#3
        0x100017ba:    4811        .H      LDR      r0,[pc,#68] ; [0x10001800] = 0x46ba
        0x100017bc:    9b04        ..      LDR      r3,[sp,#0x10]
        0x100017be:    8006        ..      STRH     r6,[r0,#0]
        0x100017c0:    10db        ..      ASRS     r3,r3,#3
        0x100017c2:    0312        ..      LSLS     r2,r2,#12
        0x100017c4:    8043        C.      STRH     r3,[r0,#2]
        0x100017c6:    0c12        ..      LSRS     r2,r2,#16
        0x100017c8:    0309        ..      LSLS     r1,r1,#12
        0x100017ca:    8082        ..      STRH     r2,[r0,#4]
        0x100017cc:    0c09        ..      LSRS     r1,r1,#16
        0x100017ce:    80c1        ..      STRH     r1,[r0,#6]
        0x100017d0:    8a21        !.      LDRH     r1,[r4,#0x10]
        0x100017d2:    8101        ..      STRH     r1,[r0,#8]
        0x100017d4:    8aa1        ..      LDRH     r1,[r4,#0x14]
        0x100017d6:    8141        A.      STRH     r1,[r0,#0xa]
        0x100017d8:    6821        !h      LDR      r1,[r4,#0]
        0x100017da:    0309        ..      LSLS     r1,r1,#12
        0x100017dc:    0c09        ..      LSRS     r1,r1,#16
        0x100017de:    8181        ..      STRH     r1,[r0,#0xc]
        0x100017e0:    68a1        .h      LDR      r1,[r4,#8]
        0x100017e2:    0309        ..      LSLS     r1,r1,#12
        0x100017e4:    0c09        ..      LSRS     r1,r1,#16
        0x100017e6:    81c1        ..      STRH     r1,[r0,#0xe]
        0x100017e8:    4806        .H      LDR      r0,[pc,#24] ; [0x10001804] = 0x4142
        0x100017ea:    2101        .!      MOVS     r1,#1
        0x100017ec:    7001        .p      STRB     r1,[r0,#0]
        0x100017ee:    7841        Ax      LDRB     r1,[r0,#1]
        0x100017f0:    2900        .)      CMP      r1,#0
        0x100017f2:    d000        ..      BEQ      0x100017f6 ; Process_SampleData + 158
        0x100017f4:    7045        Ep      STRB     r5,[r0,#1]
        0x100017f6:    2001        .       MOVS     r0,#1
        0x100017f8:    e7d5        ..      B        0x100017a6 ; Process_SampleData + 78
    $d
        0x100017fa:    0000        ..      DCW    0
        0x100017fc:    00004204    .B..    DCD    16900
        0x10001800:    000046ba    .F..    DCD    18106
        0x10001804:    00004142    BA..    DCD    16706
    $t
    i.SVC_Handler
    SVC_Handler
        0x10001808:    e7fe        ..      B        SVC_Handler ; 0x10001808
        0x1000180a:    0000        ..      MOVS     r0,r0
    i.SYS_ADC_Init
    SYS_ADC_Init
        0x1000180c:    b510        ..      PUSH     {r4,lr}
        0x1000180e:    b086        ..      SUB      sp,sp,#0x18
        0x10001810:    f7fff8c2    ....    BL       DMA_Init ; 0x10000998
        0x10001814:    21ff        .!      MOVS     r1,#0xff
        0x10001816:    4837        7H      LDR      r0,[pc,#220] ; [0x100018f4] = 0x40150000
        0x10001818:    3121        !1      ADDS     r1,r1,#0x21
        0x1000181a:    61c1        .a      STR      r1,[r0,#0x1c]
        0x1000181c:    6a81        .j      LDR      r1,[r0,#0x28]
        0x1000181e:    0909        ..      LSRS     r1,r1,#4
        0x10001820:    0109        ..      LSLS     r1,r1,#4
        0x10001822:    1c89        ..      ADDS     r1,r1,#2
        0x10001824:    6281        .b      STR      r1,[r0,#0x28]
        0x10001826:    6a81        .j      LDR      r1,[r0,#0x28]
        0x10001828:    22f0        ."      MOVS     r2,#0xf0
        0x1000182a:    4391        .C      BICS     r1,r1,r2
        0x1000182c:    31a0        .1      ADDS     r1,r1,#0xa0
        0x1000182e:    6281        .b      STR      r1,[r0,#0x28]
        0x10001830:    6a81        .j      LDR      r1,[r0,#0x28]
        0x10001832:    1542        B.      ASRS     r2,r0,#21
        0x10001834:    4311        .C      ORRS     r1,r1,r2
        0x10001836:    6281        .b      STR      r1,[r0,#0x28]
        0x10001838:    482e        .H      LDR      r0,[pc,#184] ; [0x100018f4] = 0x40150000
        0x1000183a:    3040        @0      ADDS     r0,r0,#0x40
        0x1000183c:    6b81        .k      LDR      r1,[r0,#0x38]
        0x1000183e:    2203        ."      MOVS     r2,#3
        0x10001840:    0212        ..      LSLS     r2,r2,#8
        0x10001842:    4391        .C      BICS     r1,r1,r2
        0x10001844:    31ff        .1      ADDS     r1,r1,#0xff
        0x10001846:    3101        .1      ADDS     r1,#1
        0x10001848:    6381        .c      STR      r1,[r0,#0x38]
        0x1000184a:    6b81        .k      LDR      r1,[r0,#0x38]
        0x1000184c:    2207        ."      MOVS     r2,#7
        0x1000184e:    0209        ..      LSLS     r1,r1,#8
        0x10001850:    0a09        ..      LSRS     r1,r1,#8
        0x10001852:    0652        R.      LSLS     r2,r2,#25
        0x10001854:    1889        ..      ADDS     r1,r1,r2
        0x10001856:    6381        .c      STR      r1,[r0,#0x38]
        0x10001858:    6b81        .k      LDR      r1,[r0,#0x38]
        0x1000185a:    223f        ?"      MOVS     r2,#0x3f
        0x1000185c:    0492        ..      LSLS     r2,r2,#18
        0x1000185e:    4391        .C      BICS     r1,r1,r2
        0x10001860:    2215        ."      MOVS     r2,#0x15
        0x10001862:    0492        ..      LSLS     r2,r2,#18
        0x10001864:    1889        ..      ADDS     r1,r1,r2
        0x10001866:    6381        .c      STR      r1,[r0,#0x38]
        0x10001868:    6b81        .k      LDR      r1,[r0,#0x38]
        0x1000186a:    2201        ."      MOVS     r2,#1
        0x1000186c:    0292        ..      LSLS     r2,r2,#10
        0x1000186e:    4311        .C      ORRS     r1,r1,r2
        0x10001870:    6381        .c      STR      r1,[r0,#0x38]
        0x10001872:    6b81        .k      LDR      r1,[r0,#0x38]
        0x10001874:    2203        ."      MOVS     r2,#3
        0x10001876:    03d2        ..      LSLS     r2,r2,#15
        0x10001878:    4391        .C      BICS     r1,r1,r2
        0x1000187a:    2201        ."      MOVS     r2,#1
        0x1000187c:    0412        ..      LSLS     r2,r2,#16
        0x1000187e:    1889        ..      ADDS     r1,r1,r2
        0x10001880:    6381        .c      STR      r1,[r0,#0x38]
        0x10001882:    6b81        .k      LDR      r1,[r0,#0x38]
        0x10001884:    22e0        ."      MOVS     r2,#0xe0
        0x10001886:    4391        .C      BICS     r1,r1,r2
        0x10001888:    3140        @1      ADDS     r1,r1,#0x40
        0x1000188a:    6381        .c      STR      r1,[r0,#0x38]
        0x1000188c:    6b81        .k      LDR      r1,[r0,#0x38]
        0x1000188e:    0949        I.      LSRS     r1,r1,#5
        0x10001890:    0149        I.      LSLS     r1,r1,#5
        0x10001892:    6381        .c      STR      r1,[r0,#0x38]
        0x10001894:    6b81        .k      LDR      r1,[r0,#0x38]
        0x10001896:    01d2        ..      LSLS     r2,r2,#7
        0x10001898:    4391        .C      BICS     r1,r1,r2
        0x1000189a:    6381        .c      STR      r1,[r0,#0x38]
        0x1000189c:    4816        .H      LDR      r0,[pc,#88] ; [0x100018f8] = 0x40140040
        0x1000189e:    6ac1        .j      LDR      r1,[r0,#0x2c]
        0x100018a0:    2204        ."      MOVS     r2,#4
        0x100018a2:    4311        .C      ORRS     r1,r1,r2
        0x100018a4:    62c1        .b      STR      r1,[r0,#0x2c]
        0x100018a6:    6ac1        .j      LDR      r1,[r0,#0x2c]
        0x100018a8:    2402        .$      MOVS     r4,#2
        0x100018aa:    4321        !C      ORRS     r1,r1,r4
        0x100018ac:    62c1        .b      STR      r1,[r0,#0x2c]
        0x100018ae:    6ac1        .j      LDR      r1,[r0,#0x2c]
        0x100018b0:    4a12        .J      LDR      r2,[pc,#72] ; [0x100018fc] = 0xfffe001f
        0x100018b2:    4011        .@      ANDS     r1,r1,r2
        0x100018b4:    62c1        .b      STR      r1,[r0,#0x2c]
        0x100018b6:    6ac1        .j      LDR      r1,[r0,#0x2c]
        0x100018b8:    2218        ."      MOVS     r2,#0x18
        0x100018ba:    4391        .C      BICS     r1,r1,r2
        0x100018bc:    62c1        .b      STR      r1,[r0,#0x2c]
        0x100018be:    2101        .!      MOVS     r1,#1
        0x100018c0:    2200        ."      MOVS     r2,#0
        0x100018c2:    2003        .       MOVS     r0,#3
        0x100018c4:    ab02        ..      ADD      r3,sp,#8
        0x100018c6:    9101        ..      STR      r1,[sp,#4]
        0x100018c8:    c307        ..      STM      r3!,{r0-r2}
        0x100018ca:    2015        .       MOVS     r0,#0x15
        0x100018cc:    4909        .I      LDR      r1,[pc,#36] ; [0x100018f4] = 0x40150000
        0x100018ce:    4613        .F      MOV      r3,r2
        0x100018d0:    9000        ..      STR      r0,[sp,#0]
        0x100018d2:    2220         "      MOVS     r2,#0x20
        0x100018d4:    3198        .1      ADDS     r1,r1,#0x98
        0x100018d6:    480a        .H      LDR      r0,[pc,#40] ; [0x10001900] = 0x41e4
        0x100018d8:    f7fffdb4    ....    BL       PeripheralsRxDmaConfig ; 0x10001444
        0x100018dc:    4809        .H      LDR      r0,[pc,#36] ; [0x10001904] = 0x4000d000
        0x100018de:    6801        .h      LDR      r1,[r0,#0]
        0x100018e0:    43a1        .C      BICS     r1,r1,r4
        0x100018e2:    6001        .`      STR      r1,[r0,#0]
        0x100018e4:    6801        .h      LDR      r1,[r0,#0]
        0x100018e6:    22a0        ."      MOVS     r2,#0xa0
        0x100018e8:    4311        .C      ORRS     r1,r1,r2
        0x100018ea:    6001        .`      STR      r1,[r0,#0]
        0x100018ec:    f000fb22    ..".    BL       TriggerSARAdcStart ; 0x10001f34
        0x100018f0:    b006        ..      ADD      sp,sp,#0x18
        0x100018f2:    bd10        ..      POP      {r4,pc}
    $d
        0x100018f4:    40150000    ...@    DCD    1075118080
        0x100018f8:    40140040    @..@    DCD    1075052608
        0x100018fc:    fffe001f    ....    DCD    4294836255
        0x10001900:    000041e4    .A..    DCD    16868
        0x10001904:    4000d000    ...@    DCD    1073795072
    $t
    i.SYS_GPIO_Init
    SYS_GPIO_Init
        0x10001908:    b5fe        ..      PUSH     {r1-r7,lr}
        0x1000190a:    485f        _H      LDR      r0,[pc,#380] ; [0x10001a88] = 0x4000d000
        0x1000190c:    6941        Ai      LDR      r1,[r0,#0x14]
        0x1000190e:    0849        I.      LSRS     r1,r1,#1
        0x10001910:    0049        I.      LSLS     r1,r1,#1
        0x10001912:    6141        Aa      STR      r1,[r0,#0x14]
        0x10001914:    6ac1        .j      LDR      r1,[r0,#0x2c]
        0x10001916:    0849        I.      LSRS     r1,r1,#1
        0x10001918:    0049        I.      LSLS     r1,r1,#1
        0x1000191a:    62c1        .b      STR      r1,[r0,#0x2c]
        0x1000191c:    6b01        .k      LDR      r1,[r0,#0x30]
        0x1000191e:    0849        I.      LSRS     r1,r1,#1
        0x10001920:    0049        I.      LSLS     r1,r1,#1
        0x10001922:    6301        .c      STR      r1,[r0,#0x30]
        0x10001924:    6801        .h      LDR      r1,[r0,#0]
        0x10001926:    4a59        YJ      LDR      r2,[pc,#356] ; [0x10001a8c] = 0xfffff3b9
        0x10001928:    4011        .@      ANDS     r1,r1,r2
        0x1000192a:    6001        .`      STR      r1,[r0,#0]
        0x1000192c:    4858        XH      LDR      r0,[pc,#352] ; [0x10001a90] = 0x40140000
        0x1000192e:    6801        .h      LDR      r1,[r0,#0]
        0x10001930:    2404        .$      MOVS     r4,#4
        0x10001932:    43a1        .C      BICS     r1,r1,r4
        0x10001934:    6001        .`      STR      r1,[r0,#0]
        0x10001936:    6841        Ah      LDR      r1,[r0,#4]
        0x10001938:    0422        ".      LSLS     r2,r4,#16
        0x1000193a:    4391        .C      BICS     r1,r1,r2
        0x1000193c:    6041        A`      STR      r1,[r0,#4]
        0x1000193e:    6981        .i      LDR      r1,[r0,#0x18]
        0x10001940:    2208        ."      MOVS     r2,#8
        0x10001942:    4391        .C      BICS     r1,r1,r2
        0x10001944:    6181        .a      STR      r1,[r0,#0x18]
        0x10001946:    6a41        Aj      LDR      r1,[r0,#0x24]
        0x10001948:    43a1        .C      BICS     r1,r1,r4
        0x1000194a:    6241        Ab      STR      r1,[r0,#0x24]
        0x1000194c:    6a81        .j      LDR      r1,[r0,#0x28]
        0x1000194e:    43a1        .C      BICS     r1,r1,r4
        0x10001950:    6281        .b      STR      r1,[r0,#0x28]
        0x10001952:    6ac1        .j      LDR      r1,[r0,#0x2c]
        0x10001954:    43a1        .C      BICS     r1,r1,r4
        0x10001956:    62c1        .b      STR      r1,[r0,#0x2c]
        0x10001958:    69c1        .i      LDR      r1,[r0,#0x1c]
        0x1000195a:    43a1        .C      BICS     r1,r1,r4
        0x1000195c:    61c1        .a      STR      r1,[r0,#0x1c]
        0x1000195e:    494c        LI      LDR      r1,[pc,#304] ; [0x10001a90] = 0x40140000
        0x10001960:    3140        @1      ADDS     r1,r1,#0x40
        0x10001962:    680a        .h      LDR      r2,[r1,#0]
        0x10001964:    43a2        .C      BICS     r2,r2,r4
        0x10001966:    600a        .`      STR      r2,[r1,#0]
        0x10001968:    684a        Jh      LDR      r2,[r1,#4]
        0x1000196a:    43a2        .C      BICS     r2,r2,r4
        0x1000196c:    604a        J`      STR      r2,[r1,#4]
        0x1000196e:    68ca        .h      LDR      r2,[r1,#0xc]
        0x10001970:    43a2        .C      BICS     r2,r2,r4
        0x10001972:    60ca        .`      STR      r2,[r1,#0xc]
        0x10001974:    690a        .i      LDR      r2,[r1,#0x10]
        0x10001976:    43a2        .C      BICS     r2,r2,r4
        0x10001978:    610a        .a      STR      r2,[r1,#0x10]
        0x1000197a:    6a02        .j      LDR      r2,[r0,#0x20]
        0x1000197c:    43a2        .C      BICS     r2,r2,r4
        0x1000197e:    6202        .b      STR      r2,[r0,#0x20]
        0x10001980:    6842        Bh      LDR      r2,[r0,#4]
        0x10001982:    0263        c.      LSLS     r3,r4,#9
        0x10001984:    439a        .C      BICS     r2,r2,r3
        0x10001986:    6042        B`      STR      r2,[r0,#4]
        0x10001988:    6988        .i      LDR      r0,[r1,#0x18]
        0x1000198a:    43a0        .C      BICS     r0,r0,r4
        0x1000198c:    6188        .a      STR      r0,[r1,#0x18]
        0x1000198e:    2107        .!      MOVS     r1,#7
        0x10001990:    2001        .       MOVS     r0,#1
        0x10001992:    f7fff852    ..R.    BL       GPIO_ClrAFMode ; 0x10000a3a
        0x10001996:    2107        .!      MOVS     r1,#7
        0x10001998:    2001        .       MOVS     r0,#1
        0x1000199a:    f7fff93a    ..:.    BL       GPIO_SetBits ; 0x10000c12
        0x1000199e:    2701        .'      MOVS     r7,#1
        0x100019a0:    4668        hF      MOV      r0,sp
        0x100019a2:    7007        .p      STRB     r7,[r0,#0]
        0x100019a4:    2107        .!      MOVS     r1,#7
        0x100019a6:    7041        Ap      STRB     r1,[r0,#1]
        0x100019a8:    2502        .%      MOVS     r5,#2
        0x100019aa:    7085        .p      STRB     r5,[r0,#2]
        0x100019ac:    2603        .&      MOVS     r6,#3
        0x100019ae:    70c6        .p      STRB     r6,[r0,#3]
        0x100019b0:    7105        .q      STRB     r5,[r0,#4]
        0x100019b2:    f7fff84e    ..N.    BL       GPIO_Init ; 0x10000a52
        0x100019b6:    2104        .!      MOVS     r1,#4
        0x100019b8:    2001        .       MOVS     r0,#1
        0x100019ba:    f7fff83e    ..>.    BL       GPIO_ClrAFMode ; 0x10000a3a
        0x100019be:    4668        hF      MOV      r0,sp
        0x100019c0:    7007        .p      STRB     r7,[r0,#0]
        0x100019c2:    7044        Dp      STRB     r4,[r0,#1]
        0x100019c4:    7087        .p      STRB     r7,[r0,#2]
        0x100019c6:    70c5        .p      STRB     r5,[r0,#3]
        0x100019c8:    7105        .q      STRB     r5,[r0,#4]
        0x100019ca:    f7fff842    ..B.    BL       GPIO_Init ; 0x10000a52
        0x100019ce:    2203        ."      MOVS     r2,#3
        0x100019d0:    2105        .!      MOVS     r1,#5
        0x100019d2:    2001        .       MOVS     r0,#1
        0x100019d4:    f7fff904    ....    BL       GPIO_SetAFMode ; 0x10000be0
        0x100019d8:    2205        ."      MOVS     r2,#5
        0x100019da:    2106        .!      MOVS     r1,#6
        0x100019dc:    2001        .       MOVS     r0,#1
        0x100019de:    f7fff8ff    ....    BL       GPIO_SetAFMode ; 0x10000be0
        0x100019e2:    2102        .!      MOVS     r1,#2
        0x100019e4:    2003        .       MOVS     r0,#3
        0x100019e6:    f7fff828    ..(.    BL       GPIO_ClrAFMode ; 0x10000a3a
        0x100019ea:    2102        .!      MOVS     r1,#2
        0x100019ec:    2003        .       MOVS     r0,#3
        0x100019ee:    f7fff814    ....    BL       GPIO_ClearBits ; 0x10000a1a
        0x100019f2:    4668        hF      MOV      r0,sp
        0x100019f4:    7006        .p      STRB     r6,[r0,#0]
        0x100019f6:    7045        Ep      STRB     r5,[r0,#1]
        0x100019f8:    7085        .p      STRB     r5,[r0,#2]
        0x100019fa:    70c6        .p      STRB     r6,[r0,#3]
        0x100019fc:    7105        .q      STRB     r5,[r0,#4]
        0x100019fe:    f7fff828    ..(.    BL       GPIO_Init ; 0x10000a52
        0x10001a02:    2101        .!      MOVS     r1,#1
        0x10001a04:    2003        .       MOVS     r0,#3
        0x10001a06:    f7fff818    ....    BL       GPIO_ClrAFMode ; 0x10000a3a
        0x10001a0a:    2101        .!      MOVS     r1,#1
        0x10001a0c:    2003        .       MOVS     r0,#3
        0x10001a0e:    f7fff804    ....    BL       GPIO_ClearBits ; 0x10000a1a
        0x10001a12:    4668        hF      MOV      r0,sp
        0x10001a14:    7006        .p      STRB     r6,[r0,#0]
        0x10001a16:    7047        Gp      STRB     r7,[r0,#1]
        0x10001a18:    7085        .p      STRB     r5,[r0,#2]
        0x10001a1a:    70c6        .p      STRB     r6,[r0,#3]
        0x10001a1c:    7105        .q      STRB     r5,[r0,#4]
        0x10001a1e:    f7fff818    ....    BL       GPIO_Init ; 0x10000a52
        0x10001a22:    2204        ."      MOVS     r2,#4
        0x10001a24:    2100        .!      MOVS     r1,#0
        0x10001a26:    2002        .       MOVS     r0,#2
        0x10001a28:    f7fff8da    ....    BL       GPIO_SetAFMode ; 0x10000be0
        0x10001a2c:    2204        ."      MOVS     r2,#4
        0x10001a2e:    2101        .!      MOVS     r1,#1
        0x10001a30:    2002        .       MOVS     r0,#2
        0x10001a32:    f7fff8d5    ....    BL       GPIO_SetAFMode ; 0x10000be0
        0x10001a36:    2103        .!      MOVS     r1,#3
        0x10001a38:    2205        ."      MOVS     r2,#5
        0x10001a3a:    4608        .F      MOV      r0,r1
        0x10001a3c:    f7fff8d0    ....    BL       GPIO_SetAFMode ; 0x10000be0
        0x10001a40:    2205        ."      MOVS     r2,#5
        0x10001a42:    2104        .!      MOVS     r1,#4
        0x10001a44:    2003        .       MOVS     r0,#3
        0x10001a46:    f7fff8cb    ....    BL       GPIO_SetAFMode ; 0x10000be0
        0x10001a4a:    2205        ."      MOVS     r2,#5
        0x10001a4c:    4611        .F      MOV      r1,r2
        0x10001a4e:    2003        .       MOVS     r0,#3
        0x10001a50:    f7fff8c6    ....    BL       GPIO_SetAFMode ; 0x10000be0
        0x10001a54:    2205        ."      MOVS     r2,#5
        0x10001a56:    2106        .!      MOVS     r1,#6
        0x10001a58:    2003        .       MOVS     r0,#3
        0x10001a5a:    f7fff8c1    ....    BL       GPIO_SetAFMode ; 0x10000be0
        0x10001a5e:    2205        ."      MOVS     r2,#5
        0x10001a60:    2100        .!      MOVS     r1,#0
        0x10001a62:    2004        .       MOVS     r0,#4
        0x10001a64:    f7fff8bc    ....    BL       GPIO_SetAFMode ; 0x10000be0
        0x10001a68:    2205        ."      MOVS     r2,#5
        0x10001a6a:    2101        .!      MOVS     r1,#1
        0x10001a6c:    2004        .       MOVS     r0,#4
        0x10001a6e:    f7fff8b7    ....    BL       GPIO_SetAFMode ; 0x10000be0
        0x10001a72:    2205        ."      MOVS     r2,#5
        0x10001a74:    2102        .!      MOVS     r1,#2
        0x10001a76:    2001        .       MOVS     r0,#1
        0x10001a78:    f7fff8b2    ....    BL       GPIO_SetAFMode ; 0x10000be0
        0x10001a7c:    2205        ."      MOVS     r2,#5
        0x10001a7e:    2103        .!      MOVS     r1,#3
        0x10001a80:    2001        .       MOVS     r0,#1
        0x10001a82:    f7fff8ad    ....    BL       GPIO_SetAFMode ; 0x10000be0
        0x10001a86:    bdfe        ..      POP      {r1-r7,pc}
    $d
        0x10001a88:    4000d000    ...@    DCD    1073795072
        0x10001a8c:    fffff3b9    ....    DCD    4294964153
        0x10001a90:    40140000    ...@    DCD    1075052544
    $t
    i.SYS_Hardware_Init
    SYS_Hardware_Init
        0x10001a94:    b530        0.      PUSH     {r4,r5,lr}
        0x10001a96:    b091        ..      SUB      sp,sp,#0x44
        0x10001a98:    f7ffff36    ..6.    BL       SYS_GPIO_Init ; 0x10001908
        0x10001a9c:    4820         H      LDR      r0,[pc,#128] ; [0x10001b20] = 0x40090000
        0x10001a9e:    2101        .!      MOVS     r1,#1
        0x10001aa0:    6041        A`      STR      r1,[r0,#4]
        0x10001aa2:    2400        .$      MOVS     r4,#0
        0x10001aa4:    6144        Da      STR      r4,[r0,#0x14]
        0x10001aa6:    6084        .`      STR      r4,[r0,#8]
        0x10001aa8:    491e        .I      LDR      r1,[pc,#120] ; [0x10001b24] = 0x3c5
        0x10001aaa:    60c1        .`      STR      r1,[r0,#0xc]
        0x10001aac:    6104        .a      STR      r4,[r0,#0x10]
        0x10001aae:    481e        .H      LDR      r0,[pc,#120] ; [0x10001b28] = 0x400b0000
        0x10001ab0:    9000        ..      STR      r0,[sp,#0]
        0x10001ab2:    2103        .!      MOVS     r1,#3
        0x10001ab4:    9403        ..      STR      r4,[sp,#0xc]
        0x10001ab6:    4668        hF      MOV      r0,sp
        0x10001ab8:    7201        .r      STRB     r1,[r0,#8]
        0x10001aba:    203f        ?       MOVS     r0,#0x3f
        0x10001abc:    9004        ..      STR      r0,[sp,#0x10]
        0x10001abe:    2104        .!      MOVS     r1,#4
        0x10001ac0:    4668        hF      MOV      r0,sp
        0x10001ac2:    8301        ..      STRH     r1,[r0,#0x18]
        0x10001ac4:    9407        ..      STR      r4,[sp,#0x1c]
        0x10001ac6:    2506        .%      MOVS     r5,#6
        0x10001ac8:    9405        ..      STR      r4,[sp,#0x14]
        0x10001aca:    7105        .q      STRB     r5,[r0,#4]
        0x10001acc:    7144        Dq      STRB     r4,[r0,#5]
        0x10001ace:    7184        .q      STRB     r4,[r0,#6]
        0x10001ad0:    71c4        .q      STRB     r4,[r0,#7]
        0x10001ad2:    f000f89b    ....    BL       SetTimer ; 0x10001c0c
        0x10001ad6:    4668        hF      MOV      r0,sp
        0x10001ad8:    f7fefdd4    ....    BL       ADT_StartTimer ; 0x10000684
        0x10001adc:    9400        ..      STR      r4,[sp,#0]
        0x10001ade:    9401        ..      STR      r4,[sp,#4]
        0x10001ae0:    2164        d!      MOVS     r1,#0x64
        0x10001ae2:    4668        hF      MOV      r0,sp
        0x10001ae4:    9402        ..      STR      r4,[sp,#8]
        0x10001ae6:    8141        A.      STRH     r1,[r0,#0xa]
        0x10001ae8:    7005        .p      STRB     r5,[r0,#0]
        0x10001aea:    210c        .!      MOVS     r1,#0xc
        0x10001aec:    7041        Ap      STRB     r1,[r0,#1]
        0x10001aee:    7084        .p      STRB     r4,[r0,#2]
        0x10001af0:    2201        ."      MOVS     r2,#1
        0x10001af2:    2100        .!      MOVS     r1,#0
        0x10001af4:    4610        .F      MOV      r0,r2
        0x10001af6:    f7fefdcb    ....    BL       Cmp_CLKConfig ; 0x10000690
        0x10001afa:    4669        iF      MOV      r1,sp
        0x10001afc:    2001        .       MOVS     r0,#1
        0x10001afe:    f7fefe03    ....    BL       Cmp_Init ; 0x10000708
        0x10001b02:    2101        .!      MOVS     r1,#1
        0x10001b04:    237f        .#      MOVS     r3,#0x7f
        0x10001b06:    2200        ."      MOVS     r2,#0
        0x10001b08:    4608        .F      MOV      r0,r1
        0x10001b0a:    f7fefedb    ....    BL       Cmp_VrefConfig ; 0x100008c4
        0x10001b0e:    2001        .       MOVS     r0,#1
        0x10001b10:    f7fefdea    ....    BL       Cmp_Enable ; 0x100006e8
        0x10001b14:    f000f836    ..6.    BL       SYS_OPA_Init ; 0x10001b84
        0x10001b18:    f7fffe78    ..x.    BL       SYS_ADC_Init ; 0x1000180c
        0x10001b1c:    b011        ..      ADD      sp,sp,#0x44
        0x10001b1e:    bd30        0.      POP      {r4,r5,pc}
    $d
        0x10001b20:    40090000    ...@    DCD    1074331648
        0x10001b24:    000003c5    ....    DCD    965
        0x10001b28:    400b0000    ...@    DCD    1074462720
    $t
    i.SYS_Interrupt_Enable
    SYS_Interrupt_Enable
        0x10001b2c:    b510        ..      PUSH     {r4,lr}
        0x10001b2e:    4912        .I      LDR      r1,[pc,#72] ; [0x10001b78] = 0x40020000
        0x10001b30:    4810        .H      LDR      r0,[pc,#64] ; [0x10001b74] = 0xfffff7ff
        0x10001b32:    6088        .`      STR      r0,[r1,#8]
        0x10001b34:    4811        .H      LDR      r0,[pc,#68] ; [0x10001b7c] = 0x40007000
        0x10001b36:    6881        .h      LDR      r1,[r0,#8]
        0x10001b38:    2240        @"      MOVS     r2,#0x40
        0x10001b3a:    4391        .C      BICS     r1,r1,r2
        0x10001b3c:    6081        .`      STR      r1,[r0,#8]
        0x10001b3e:    2101        .!      MOVS     r1,#1
        0x10001b40:    4608        .F      MOV      r0,r1
        0x10001b42:    f000fa4f    ..O.    BL       __NVIC_SetPriority ; 0x10001fe4
        0x10001b46:    2001        .       MOVS     r0,#1
        0x10001b48:    f000fa34    ..4.    BL       __NVIC_EnableIRQ ; 0x10001fb4
        0x10001b4c:    2102        .!      MOVS     r1,#2
        0x10001b4e:    4608        .F      MOV      r0,r1
        0x10001b50:    f000fa48    ..H.    BL       __NVIC_SetPriority ; 0x10001fe4
        0x10001b54:    2002        .       MOVS     r0,#2
        0x10001b56:    f000fa2d    ..-.    BL       __NVIC_EnableIRQ ; 0x10001fb4
        0x10001b5a:    2100        .!      MOVS     r1,#0
        0x10001b5c:    4608        .F      MOV      r0,r1
        0x10001b5e:    f000fa41    ..A.    BL       __NVIC_SetPriority ; 0x10001fe4
        0x10001b62:    2000        .       MOVS     r0,#0
        0x10001b64:    f000fa26    ..&.    BL       __NVIC_EnableIRQ ; 0x10001fb4
        0x10001b68:    4905        .I      LDR      r1,[pc,#20] ; [0x10001b80] = 0x40090000
        0x10001b6a:    2001        .       MOVS     r0,#1
        0x10001b6c:    6008        .`      STR      r0,[r1,#0]
        0x10001b6e:    f7fff899    ....    BL       IWDG_Enable ; 0x10000ca4
        0x10001b72:    bd10        ..      POP      {r4,pc}
    $d
        0x10001b74:    fffff7ff    ....    DCD    4294965247
        0x10001b78:    40020000    ...@    DCD    1073872896
        0x10001b7c:    40007000    .p.@    DCD    1073770496
        0x10001b80:    40090000    ...@    DCD    1074331648
    $t
    i.SYS_OPA_Init
    SYS_OPA_Init
        0x10001b84:    b570        p.      PUSH     {r4-r6,lr}
        0x10001b86:    b086        ..      SUB      sp,sp,#0x18
        0x10001b88:    2400        .$      MOVS     r4,#0
        0x10001b8a:    9403        ..      STR      r4,[sp,#0xc]
        0x10001b8c:    9404        ..      STR      r4,[sp,#0x10]
        0x10001b8e:    9400        ..      STR      r4,[sp,#0]
        0x10001b90:    9401        ..      STR      r4,[sp,#4]
        0x10001b92:    2501        .%      MOVS     r5,#1
        0x10001b94:    4668        hF      MOV      r0,sp
        0x10001b96:    9402        ..      STR      r4,[sp,#8]
        0x10001b98:    74c5        .t      STRB     r5,[r0,#0x13]
        0x10001b9a:    2603        .&      MOVS     r6,#3
        0x10001b9c:    7306        .s      STRB     r6,[r0,#0xc]
        0x10001b9e:    7346        Fs      STRB     r6,[r0,#0xd]
        0x10001ba0:    73c4        .s      STRB     r4,[r0,#0xf]
        0x10001ba2:    7384        .s      STRB     r4,[r0,#0xe]
        0x10001ba4:    7444        Dt      STRB     r4,[r0,#0x11]
        0x10001ba6:    7484        .t      STRB     r4,[r0,#0x12]
        0x10001ba8:    a803        ..      ADD      r0,sp,#0xc
        0x10001baa:    f000f959    ..Y.    BL       Tia_Init ; 0x10001e60
        0x10001bae:    f000f94f    ..O.    BL       Tia_Enable ; 0x10001e50
        0x10001bb2:    4668        hF      MOV      r0,sp
        0x10001bb4:    7044        Dp      STRB     r4,[r0,#1]
        0x10001bb6:    71c5        .q      STRB     r5,[r0,#7]
        0x10001bb8:    7204        .r      STRB     r4,[r0,#8]
        0x10001bba:    70c6        .p      STRB     r6,[r0,#3]
        0x10001bbc:    7106        .q      STRB     r6,[r0,#4]
        0x10001bbe:    7005        .p      STRB     r5,[r0,#0]
        0x10001bc0:    7144        Dq      STRB     r4,[r0,#5]
        0x10001bc2:    7084        .p      STRB     r4,[r0,#2]
        0x10001bc4:    7184        .q      STRB     r4,[r0,#6]
        0x10001bc6:    4669        iF      MOV      r1,sp
        0x10001bc8:    2000        .       MOVS     r0,#0
        0x10001bca:    f7fffbbf    ....    BL       OPA_Init ; 0x1000134c
        0x10001bce:    2000        .       MOVS     r0,#0
        0x10001bd0:    f7fffbaa    ....    BL       OPA_Enable ; 0x10001328
        0x10001bd4:    4668        hF      MOV      r0,sp
        0x10001bd6:    7045        Ep      STRB     r5,[r0,#1]
        0x10001bd8:    71c5        .q      STRB     r5,[r0,#7]
        0x10001bda:    7204        .r      STRB     r4,[r0,#8]
        0x10001bdc:    70c6        .p      STRB     r6,[r0,#3]
        0x10001bde:    7104        .q      STRB     r4,[r0,#4]
        0x10001be0:    7005        .p      STRB     r5,[r0,#0]
        0x10001be2:    7144        Dq      STRB     r4,[r0,#5]
        0x10001be4:    7084        .p      STRB     r4,[r0,#2]
        0x10001be6:    7184        .q      STRB     r4,[r0,#6]
        0x10001be8:    2001        .       MOVS     r0,#1
        0x10001bea:    f7fffb85    ....    BL       OP2_VinPadConfig ; 0x100012f8
        0x10001bee:    2001        .       MOVS     r0,#1
        0x10001bf0:    f7fffb8e    ....    BL       OP2_VipPadConfig ; 0x10001310
        0x10001bf4:    2001        .       MOVS     r0,#1
        0x10001bf6:    f7fffb73    ..s.    BL       OP2_OutPadConfig ; 0x100012e0
        0x10001bfa:    4669        iF      MOV      r1,sp
        0x10001bfc:    2001        .       MOVS     r0,#1
        0x10001bfe:    f7fffba5    ....    BL       OPA_Init ; 0x1000134c
        0x10001c02:    2001        .       MOVS     r0,#1
        0x10001c04:    f7fffb90    ....    BL       OPA_Enable ; 0x10001328
        0x10001c08:    b006        ..      ADD      sp,sp,#0x18
        0x10001c0a:    bd70        p.      POP      {r4-r6,pc}
    i.SetTimer
    SetTimer
        0x10001c0c:    6802        .h      LDR      r2,[r0,#0]
        0x10001c0e:    68c1        .h      LDR      r1,[r0,#0xc]
        0x10001c10:    6091        .`      STR      r1,[r2,#8]
        0x10001c12:    6802        .h      LDR      r2,[r0,#0]
        0x10001c14:    6901        .i      LDR      r1,[r0,#0x10]
        0x10001c16:    60d1        .`      STR      r1,[r2,#0xc]
        0x10001c18:    6802        .h      LDR      r2,[r0,#0]
        0x10001c1a:    6941        Ai      LDR      r1,[r0,#0x14]
        0x10001c1c:    6111        .a      STR      r1,[r2,#0x10]
        0x10001c1e:    6802        .h      LDR      r2,[r0,#0]
        0x10001c20:    8b01        ..      LDRH     r1,[r0,#0x18]
        0x10001c22:    6191        .a      STR      r1,[r2,#0x18]
        0x10001c24:    6802        .h      LDR      r2,[r0,#0]
        0x10001c26:    69c1        .i      LDR      r1,[r0,#0x1c]
        0x10001c28:    61d1        .a      STR      r1,[r2,#0x1c]
        0x10001c2a:    6802        .h      LDR      r2,[r0,#0]
        0x10001c2c:    6a01        .j      LDR      r1,[r0,#0x20]
        0x10001c2e:    6211        .b      STR      r1,[r2,#0x20]
        0x10001c30:    6802        .h      LDR      r2,[r0,#0]
        0x10001c32:    6a41        Aj      LDR      r1,[r0,#0x24]
        0x10001c34:    6251        Qb      STR      r1,[r2,#0x24]
        0x10001c36:    6802        .h      LDR      r2,[r0,#0]
        0x10001c38:    6a81        .j      LDR      r1,[r0,#0x28]
        0x10001c3a:    6291        .b      STR      r1,[r2,#0x28]
        0x10001c3c:    6802        .h      LDR      r2,[r0,#0]
        0x10001c3e:    8d81        ..      LDRH     r1,[r0,#0x2c]
        0x10001c40:    62d1        .b      STR      r1,[r2,#0x2c]
        0x10001c42:    6802        .h      LDR      r2,[r0,#0]
        0x10001c44:    6b01        .k      LDR      r1,[r0,#0x30]
        0x10001c46:    6311        .c      STR      r1,[r2,#0x30]
        0x10001c48:    6802        .h      LDR      r2,[r0,#0]
        0x10001c4a:    6b41        Ak      LDR      r1,[r0,#0x34]
        0x10001c4c:    6351        Qc      STR      r1,[r2,#0x34]
        0x10001c4e:    6802        .h      LDR      r2,[r0,#0]
        0x10001c50:    6b81        .k      LDR      r1,[r0,#0x38]
        0x10001c52:    6391        .c      STR      r1,[r2,#0x38]
        0x10001c54:    6802        .h      LDR      r2,[r0,#0]
        0x10001c56:    6bc1        .k      LDR      r1,[r0,#0x3c]
        0x10001c58:    63d1        .c      STR      r1,[r2,#0x3c]
        0x10001c5a:    6802        .h      LDR      r2,[r0,#0]
        0x10001c5c:    6c01        .l      LDR      r1,[r0,#0x40]
        0x10001c5e:    6411        .d      STR      r1,[r2,#0x40]
        0x10001c60:    7901        .y      LDRB     r1,[r0,#4]
        0x10001c62:    7942        By      LDRB     r2,[r0,#5]
        0x10001c64:    0749        I.      LSLS     r1,r1,#29
        0x10001c66:    07d2        ..      LSLS     r2,r2,#31
        0x10001c68:    0f09        ..      LSRS     r1,r1,#28
        0x10001c6a:    0ed2        ..      LSRS     r2,r2,#27
        0x10001c6c:    4311        .C      ORRS     r1,r1,r2
        0x10001c6e:    7982        .y      LDRB     r2,[r0,#6]
        0x10001c70:    0792        ..      LSLS     r2,r2,#30
        0x10001c72:    0e52        R.      LSRS     r2,r2,#25
        0x10001c74:    4311        .C      ORRS     r1,r1,r2
        0x10001c76:    79c2        .y      LDRB     r2,[r0,#7]
        0x10001c78:    6800        .h      LDR      r0,[r0,#0]
        0x10001c7a:    07d2        ..      LSLS     r2,r2,#31
        0x10001c7c:    0e12        ..      LSRS     r2,r2,#24
        0x10001c7e:    4311        .C      ORRS     r1,r1,r2
        0x10001c80:    6001        .`      STR      r1,[r0,#0]
        0x10001c82:    4770        pG      BX       lr
    i.SysCheckTrimValid
    SysCheckTrimValid
        0x10001c84:    4911        .I      LDR      r1,[pc,#68] ; [0x10001ccc] = 0x10ff0000
        0x10001c86:    68ca        .h      LDR      r2,[r1,#0xc]
        0x10001c88:    2303        .#      MOVS     r3,#3
        0x10001c8a:    061b        ..      LSLS     r3,r3,#24
        0x10001c8c:    439a        .C      BICS     r2,r2,r3
        0x10001c8e:    2301        .#      MOVS     r3,#1
        0x10001c90:    061b        ..      LSLS     r3,r3,#24
        0x10001c92:    18d2        ..      ADDS     r2,r2,r3
        0x10001c94:    60ca        .`      STR      r2,[r1,#0xc]
        0x10001c96:    6801        .h      LDR      r1,[r0,#0]
        0x10001c98:    4a0d        .J      LDR      r2,[pc,#52] ; [0x10001cd0] = 0x10800c10
        0x10001c9a:    4290        .B      CMP      r0,r2
        0x10001c9c:    d103        ..      BNE      0x10001ca6 ; SysCheckTrimValid + 34
        0x10001c9e:    0600        ..      LSLS     r0,r0,#24
        0x10001ca0:    4281        .B      CMP      r1,r0
        0x10001ca2:    d00e        ..      BEQ      0x10001cc2 ; SysCheckTrimValid + 62
        0x10001ca4:    e00f        ..      B        0x10001cc6 ; SysCheckTrimValid + 66
        0x10001ca6:    4a0a        .J      LDR      r2,[pc,#40] ; [0x10001cd0] = 0x10800c10
        0x10001ca8:    324c        L2      ADDS     r2,r2,#0x4c
        0x10001caa:    4290        .B      CMP      r0,r2
        0x10001cac:    d103        ..      BNE      0x10001cb6 ; SysCheckTrimValid + 50
        0x10001cae:    0208        ..      LSLS     r0,r1,#8
        0x10001cb0:    0c00        ..      LSRS     r0,r0,#16
        0x10001cb2:    d006        ..      BEQ      0x10001cc2 ; SysCheckTrimValid + 62
        0x10001cb4:    e007        ..      B        0x10001cc6 ; SysCheckTrimValid + 66
        0x10001cb6:    4a06        .J      LDR      r2,[pc,#24] ; [0x10001cd0] = 0x10800c10
        0x10001cb8:    1f12        ..      SUBS     r2,r2,#4
        0x10001cba:    4290        .B      CMP      r0,r2
        0x10001cbc:    d103        ..      BNE      0x10001cc6 ; SysCheckTrimValid + 66
        0x10001cbe:    01c8        ..      LSLS     r0,r1,#7
        0x10001cc0:    d401        ..      BMI      0x10001cc6 ; SysCheckTrimValid + 66
        0x10001cc2:    2001        .       MOVS     r0,#1
        0x10001cc4:    4770        pG      BX       lr
        0x10001cc6:    2000        .       MOVS     r0,#0
        0x10001cc8:    4770        pG      BX       lr
    $d
        0x10001cca:    0000        ..      DCW    0
        0x10001ccc:    10ff0000    ....    DCD    285147136
        0x10001cd0:    10800c10    ....    DCD    276827152
    $t
    i.SysTick_Handler
    SysTick_Handler
        0x10001cd4:    e7fe        ..      B        SysTick_Handler ; 0x10001cd4
        0x10001cd6:    0000        ..      MOVS     r0,r0
    i.SystemConfigFlash
    SystemConfigFlash
        0x10001cd8:    b510        ..      PUSH     {r4,lr}
        0x10001cda:    4805        .H      LDR      r0,[pc,#20] ; [0x10001cf0] = 0x4138
        0x10001cdc:    4905        .I      LDR      r1,[pc,#20] ; [0x10001cf4] = 0x1c9c380
        0x10001cde:    6800        .h      LDR      r0,[r0,#0]
        0x10001ce0:    4288        .B      CMP      r0,r1
        0x10001ce2:    d901        ..      BLS      0x10001ce8 ; SystemConfigFlash + 16
        0x10001ce4:    2001        .       MOVS     r0,#1
        0x10001ce6:    e000        ..      B        0x10001cea ; SystemConfigFlash + 18
        0x10001ce8:    2000        .       MOVS     r0,#0
        0x10001cea:    f7fefcc5    ....    BL       $Ven$TT$L$$Flash_ConfigRCTC ; 0x10000678
        0x10001cee:    bd10        ..      POP      {r4,pc}
    $d
        0x10001cf0:    00004138    8A..    DCD    16696
        0x10001cf4:    01c9c380    ....    DCD    30000000
    $t
    i.SystemCoreClockUpdate
    SystemCoreClockUpdate
        0x10001cf8:    b500        ..      PUSH     {lr}
        0x10001cfa:    f000f833    ..3.    BL       SystemGetHClkFreq ; 0x10001d64
        0x10001cfe:    4901        .I      LDR      r1,[pc,#4] ; [0x10001d04] = 0x4138
        0x10001d00:    6008        .`      STR      r0,[r1,#0]
        0x10001d02:    bd00        ..      POP      {pc}
    $d
        0x10001d04:    00004138    8A..    DCD    16696
    $t
    i.SystemCoreSwitchHclkSrc
    SystemCoreSwitchHclkSrc
        0x10001d08:    b570        p.      PUSH     {r4-r6,lr}
        0x10001d0a:    2600        .&      MOVS     r6,#0
        0x10001d0c:    2404        .$      MOVS     r4,#4
        0x10001d0e:    2501        .%      MOVS     r5,#1
        0x10001d10:    4a12        .J      LDR      r2,[pc,#72] ; [0x10001d5c] = 0x40140000
        0x10001d12:    4913        .I      LDR      r1,[pc,#76] ; [0x10001d60] = 0x4000a000
        0x10001d14:    0003        ..      MOVS     r3,r0
        0x10001d16:    f000f934    ..4.    BL       __ARM_common_switch8 ; 0x10001f82
    $d
        0x10001d1a:    0405        ..      DCW    1029
        0x10001d1c:    15110f08    ....    DCD    353439496
        0x10001d20:    0019        ..      DCW    25
    $t
        0x10001d22:    6810        .h      LDR      r0,[r2,#0]
        0x10001d24:    0880        ..      LSRS     r0,r0,#2
        0x10001d26:    0080        ..      LSLS     r0,r0,#2
        0x10001d28:    e003        ..      B        0x10001d32 ; SystemCoreSwitchHclkSrc + 42
        0x10001d2a:    6810        .h      LDR      r0,[r2,#0]
        0x10001d2c:    0880        ..      LSRS     r0,r0,#2
        0x10001d2e:    0080        ..      LSLS     r0,r0,#2
        0x10001d30:    1c40        @.      ADDS     r0,r0,#1
        0x10001d32:    6010        .`      STR      r0,[r2,#0]
        0x10001d34:    604e        N`      STR      r6,[r1,#4]
        0x10001d36:    e009        ..      B        0x10001d4c ; SystemCoreSwitchHclkSrc + 68
        0x10001d38:    604d        M`      STR      r5,[r1,#4]
        0x10001d3a:    e007        ..      B        0x10001d4c ; SystemCoreSwitchHclkSrc + 68
        0x10001d3c:    6808        .h      LDR      r0,[r1,#0]
        0x10001d3e:    0840        @.      LSRS     r0,r0,#1
        0x10001d40:    0040        @.      LSLS     r0,r0,#1
        0x10001d42:    e001        ..      B        0x10001d48 ; SystemCoreSwitchHclkSrc + 64
        0x10001d44:    6808        .h      LDR      r0,[r1,#0]
        0x10001d46:    4328        (C      ORRS     r0,r0,r5
        0x10001d48:    6008        .`      STR      r0,[r1,#0]
        0x10001d4a:    604c        L`      STR      r4,[r1,#4]
        0x10001d4c:    2000        .       MOVS     r0,#0
        0x10001d4e:    2101        .!      MOVS     r1,#1
        0x10001d50:    0289        ..      LSLS     r1,r1,#10
        0x10001d52:    bf00        ..      NOP      
        0x10001d54:    1c40        @.      ADDS     r0,r0,#1
        0x10001d56:    4288        .B      CMP      r0,r1
        0x10001d58:    d3fb        ..      BCC      0x10001d52 ; SystemCoreSwitchHclkSrc + 74
        0x10001d5a:    bd70        p.      POP      {r4-r6,pc}
    $d
        0x10001d5c:    40140000    ...@    DCD    1075052544
        0x10001d60:    4000a000    ...@    DCD    1073782784
    $t
    i.SystemGetHClkFreq
    SystemGetHClkFreq
        0x10001d64:    b570        p.      PUSH     {r4-r6,lr}
        0x10001d66:    4911        .I      LDR      r1,[pc,#68] ; [0x10001dac] = 0x4000a000
        0x10001d68:    2000        .       MOVS     r0,#0
        0x10001d6a:    6849        Ih      LDR      r1,[r1,#4]
        0x10001d6c:    4d10        .M      LDR      r5,[pc,#64] ; [0x10001db0] = 0x85f8
        0x10001d6e:    b2cc        ..      UXTB     r4,r1
        0x10001d70:    4e10        .N      LDR      r6,[pc,#64] ; [0x10001db4] = 0xb548
        0x10001d72:    4911        .I      LDR      r1,[pc,#68] ; [0x10001db8] = 0x1e84800
        0x10001d74:    4a11        .J      LDR      r2,[pc,#68] ; [0x10001dbc] = 0x40150180
        0x10001d76:    0023        #.      MOVS     r3,r4
        0x10001d78:    f000f903    ....    BL       __ARM_common_switch8 ; 0x10001f82
    $d
        0x10001d7c:    05100508    ....    DCD    84935944
        0x10001d80:    160d0d10    ....    DCD    369954064
        0x10001d84:    0916        ..      DCW    2326
    $t
        0x10001d86:    6b90        .k      LDR      r0,[r2,#0x38]
        0x10001d88:    42a8        .B      CMP      r0,r5
        0x10001d8a:    d101        ..      BNE      0x10001d90 ; SystemGetHClkFreq + 44
        0x10001d8c:    480c        .H      LDR      r0,[pc,#48] ; [0x10001dc0] = 0x19bfcc0
        0x10001d8e:    bd70        p.      POP      {r4-r6,pc}
        0x10001d90:    6b91        .k      LDR      r1,[r2,#0x38]
        0x10001d92:    480c        .H      LDR      r0,[pc,#48] ; [0x10001dc4] = 0xf42400
        0x10001d94:    bd70        p.      POP      {r4-r6,pc}
        0x10001d96:    2001        .       MOVS     r0,#1
        0x10001d98:    03c0        ..      LSLS     r0,r0,#15
        0x10001d9a:    bd70        p.      POP      {r4-r6,pc}
        0x10001d9c:    6b90        .k      LDR      r0,[r2,#0x38]
        0x10001d9e:    42a8        .B      CMP      r0,r5
        0x10001da0:    d101        ..      BNE      0x10001da6 ; SystemGetHClkFreq + 66
        0x10001da2:    4809        .H      LDR      r0,[pc,#36] ; [0x10001dc8] = 0x337f980
        0x10001da4:    bd70        p.      POP      {r4-r6,pc}
        0x10001da6:    6b90        .k      LDR      r0,[r2,#0x38]
        0x10001da8:    4608        .F      MOV      r0,r1
        0x10001daa:    bd70        p.      POP      {r4-r6,pc}
    $d
        0x10001dac:    4000a000    ...@    DCD    1073782784
        0x10001db0:    000085f8    ....    DCD    34296
        0x10001db4:    0000b548    H...    DCD    46408
        0x10001db8:    01e84800    .H..    DCD    32000000
        0x10001dbc:    40150180    ...@    DCD    1075118464
        0x10001dc0:    019bfcc0    ....    DCD    27000000
        0x10001dc4:    00f42400    .$..    DCD    16000000
        0x10001dc8:    0337f980    ..7.    DCD    54000000
    $t
    i.SystemInit
    SystemInit
        0x10001dcc:    b510        ..      PUSH     {r4,lr}
        0x10001dce:    2002        .       MOVS     r0,#2
        0x10001dd0:    f7ffff9a    ....    BL       SystemCoreSwitchHclkSrc ; 0x10001d08
        0x10001dd4:    4814        .H      LDR      r0,[pc,#80] ; [0x10001e28] = 0x4000c000
        0x10001dd6:    6841        Ah      LDR      r1,[r0,#4]
        0x10001dd8:    0789        ..      LSLS     r1,r1,#30
        0x10001dda:    0f89        ..      LSRS     r1,r1,#30
        0x10001ddc:    2901        .)      CMP      r1,#1
        0x10001dde:    d006        ..      BEQ      0x10001dee ; SystemInit + 34
        0x10001de0:    6840        @h      LDR      r0,[r0,#4]
        0x10001de2:    0780        ..      LSLS     r0,r0,#30
        0x10001de4:    0f80        ..      LSRS     r0,r0,#30
        0x10001de6:    2802        .(      CMP      r0,#2
        0x10001de8:    d001        ..      BEQ      0x10001dee ; SystemInit + 34
        0x10001dea:    f7fefdbb    ....    BL       CopyDataRWtoImage ; 0x10000964
        0x10001dee:    f7ffff83    ....    BL       SystemCoreClockUpdate ; 0x10001cf8
        0x10001df2:    f7ffff71    ..q.    BL       SystemConfigFlash ; 0x10001cd8
        0x10001df6:    480d        .H      LDR      r0,[pc,#52] ; [0x10001e2c] = 0x10800c10
        0x10001df8:    f7ffff44    ..D.    BL       SysCheckTrimValid ; 0x10001c84
        0x10001dfc:    2800        .(      CMP      r0,#0
        0x10001dfe:    d012        ..      BEQ      0x10001e26 ; SystemInit + 90
        0x10001e00:    480a        .H      LDR      r0,[pc,#40] ; [0x10001e2c] = 0x10800c10
        0x10001e02:    304c        L0      ADDS     r0,r0,#0x4c
        0x10001e04:    f7ffff3e    ..>.    BL       SysCheckTrimValid ; 0x10001c84
        0x10001e08:    2800        .(      CMP      r0,#0
        0x10001e0a:    d00c        ..      BEQ      0x10001e26 ; SystemInit + 90
        0x10001e0c:    4807        .H      LDR      r0,[pc,#28] ; [0x10001e2c] = 0x10800c10
        0x10001e0e:    1f00        ..      SUBS     r0,r0,#4
        0x10001e10:    f7ffff38    ..8.    BL       SysCheckTrimValid ; 0x10001c84
        0x10001e14:    2800        .(      CMP      r0,#0
        0x10001e16:    d006        ..      BEQ      0x10001e26 ; SystemInit + 90
        0x10001e18:    4804        .H      LDR      r0,[pc,#16] ; [0x10001e2c] = 0x10800c10
        0x10001e1a:    30f0        .0      ADDS     r0,r0,#0xf0
        0x10001e1c:    6980        .i      LDR      r0,[r0,#0x18]
        0x10001e1e:    4904        .I      LDR      r1,[pc,#16] ; [0x10001e30] = 0x40150180
        0x10001e20:    b280        ..      UXTH     r0,r0
        0x10001e22:    6388        .c      STR      r0,[r1,#0x38]
        0x10001e24:    bd10        ..      POP      {r4,pc}
        0x10001e26:    e7fe        ..      B        0x10001e26 ; SystemInit + 90
    $d
        0x10001e28:    4000c000    ...@    DCD    1073790976
        0x10001e2c:    10800c10    ....    DCD    276827152
        0x10001e30:    40150180    ...@    DCD    1075118464
    $t
    i.TCmain
    TCmain
        0x10001e34:    4805        .H      LDR      r0,[pc,#20] ; [0x10001e4c] = 0x2710
        0x10001e36:    f000f955    ..U.    BL       delay1ms ; 0x100020e4
        0x10001e3a:    f7fffb3f    ..?.    BL       PrintInit ; 0x100014bc
        0x10001e3e:    f7fefef9    ....    BL       IC_PowupInit ; 0x10000c34
        0x10001e42:    f7fffe27    ..'.    BL       SYS_Hardware_Init ; 0x10001a94
        0x10001e46:    f7fffe71    ..q.    BL       SYS_Interrupt_Enable ; 0x10001b2c
        0x10001e4a:    e7fe        ..      B        0x10001e4a ; TCmain + 22
    $d
        0x10001e4c:    00002710    .'..    DCD    10000
    $t
    i.Tia_Enable
    Tia_Enable
        0x10001e50:    4802        .H      LDR      r0,[pc,#8] ; [0x10001e5c] = 0x4000d000
        0x10001e52:    6a81        .j      LDR      r1,[r0,#0x28]
        0x10001e54:    2210        ."      MOVS     r2,#0x10
        0x10001e56:    4311        .C      ORRS     r1,r1,r2
        0x10001e58:    6281        .b      STR      r1,[r0,#0x28]
        0x10001e5a:    4770        pG      BX       lr
    $d
        0x10001e5c:    4000d000    ...@    DCD    1073795072
    $t
    i.Tia_Init
    Tia_Init
        0x10001e60:    b510        ..      PUSH     {r4,lr}
        0x10001e62:    2201        ."      MOVS     r2,#1
        0x10001e64:    7884        .x      LDRB     r4,[r0,#2]
        0x10001e66:    0352        R.      LSLS     r2,r2,#13
        0x10001e68:    0093        ..      LSLS     r3,r2,#2
        0x10001e6a:    4931        1I      LDR      r1,[pc,#196] ; [0x10001f30] = 0x4000d000
        0x10001e6c:    2c01        .,      CMP      r4,#1
        0x10001e6e:    d01b        ..      BEQ      0x10001ea8 ; Tia_Init + 72
        0x10001e70:    2c02        .,      CMP      r4,#2
        0x10001e72:    6a8c        .j      LDR      r4,[r1,#0x28]
        0x10001e74:    d01e        ..      BEQ      0x10001eb4 ; Tia_Init + 84
        0x10001e76:    4394        .C      BICS     r4,r4,r2
        0x10001e78:    628c        .b      STR      r4,[r1,#0x28]
        0x10001e7a:    6a8a        .j      LDR      r2,[r1,#0x28]
        0x10001e7c:    439a        .C      BICS     r2,r2,r3
        0x10001e7e:    628a        .b      STR      r2,[r1,#0x28]
        0x10001e80:    2201        ."      MOVS     r2,#1
        0x10001e82:    7884        .x      LDRB     r4,[r0,#2]
        0x10001e84:    0312        ..      LSLS     r2,r2,#12
        0x10001e86:    0093        ..      LSLS     r3,r2,#2
        0x10001e88:    2c01        .,      CMP      r4,#1
        0x10001e8a:    d015        ..      BEQ      0x10001eb8 ; Tia_Init + 88
        0x10001e8c:    2c02        .,      CMP      r4,#2
        0x10001e8e:    6a8c        .j      LDR      r4,[r1,#0x28]
        0x10001e90:    d018        ..      BEQ      0x10001ec4 ; Tia_Init + 100
        0x10001e92:    4394        .C      BICS     r4,r4,r2
        0x10001e94:    628c        .b      STR      r4,[r1,#0x28]
        0x10001e96:    6a8a        .j      LDR      r2,[r1,#0x28]
        0x10001e98:    439a        .C      BICS     r2,r2,r3
        0x10001e9a:    628a        .b      STR      r2,[r1,#0x28]
        0x10001e9c:    6a8a        .j      LDR      r2,[r1,#0x28]
        0x10001e9e:    0352        R.      LSLS     r2,r2,#13
        0x10001ea0:    0f92        ..      LSRS     r2,r2,#30
        0x10001ea2:    2a01        .*      CMP      r2,#1
        0x10001ea4:    d010        ..      BEQ      0x10001ec8 ; Tia_Init + 104
        0x10001ea6:    e018        ..      B        0x10001eda ; Tia_Init + 122
        0x10001ea8:    6a8c        .j      LDR      r4,[r1,#0x28]
        0x10001eaa:    4394        .C      BICS     r4,r4,r2
        0x10001eac:    628c        .b      STR      r4,[r1,#0x28]
        0x10001eae:    6a8a        .j      LDR      r2,[r1,#0x28]
        0x10001eb0:    431a        .C      ORRS     r2,r2,r3
        0x10001eb2:    e7e4        ..      B        0x10001e7e ; Tia_Init + 30
        0x10001eb4:    4314        .C      ORRS     r4,r4,r2
        0x10001eb6:    e7df        ..      B        0x10001e78 ; Tia_Init + 24
        0x10001eb8:    6a8c        .j      LDR      r4,[r1,#0x28]
        0x10001eba:    4394        .C      BICS     r4,r4,r2
        0x10001ebc:    628c        .b      STR      r4,[r1,#0x28]
        0x10001ebe:    6a8a        .j      LDR      r2,[r1,#0x28]
        0x10001ec0:    431a        .C      ORRS     r2,r2,r3
        0x10001ec2:    e7ea        ..      B        0x10001e9a ; Tia_Init + 58
        0x10001ec4:    4314        .C      ORRS     r4,r4,r2
        0x10001ec6:    e7e5        ..      B        0x10001e94 ; Tia_Init + 52
        0x10001ec8:    6a8a        .j      LDR      r2,[r1,#0x28]
        0x10001eca:    230f        .#      MOVS     r3,#0xf
        0x10001ecc:    021b        ..      LSLS     r3,r3,#8
        0x10001ece:    439a        .C      BICS     r2,r2,r3
        0x10001ed0:    7903        .y      LDRB     r3,[r0,#4]
        0x10001ed2:    071b        ..      LSLS     r3,r3,#28
        0x10001ed4:    0d1b        ..      LSRS     r3,r3,#20
        0x10001ed6:    431a        .C      ORRS     r2,r2,r3
        0x10001ed8:    628a        .b      STR      r2,[r1,#0x28]
        0x10001eda:    6a8a        .j      LDR      r2,[r1,#0x28]
        0x10001edc:    2303        .#      MOVS     r3,#3
        0x10001ede:    045b        [.      LSLS     r3,r3,#17
        0x10001ee0:    439a        .C      BICS     r2,r2,r3
        0x10001ee2:    7943        Cy      LDRB     r3,[r0,#5]
        0x10001ee4:    079b        ..      LSLS     r3,r3,#30
        0x10001ee6:    0b5b        [.      LSRS     r3,r3,#13
        0x10001ee8:    431a        .C      ORRS     r2,r2,r3
        0x10001eea:    628a        .b      STR      r2,[r1,#0x28]
        0x10001eec:    6a8a        .j      LDR      r2,[r1,#0x28]
        0x10001eee:    7803        .x      LDRB     r3,[r0,#0]
        0x10001ef0:    0892        ..      LSRS     r2,r2,#2
        0x10001ef2:    0092        ..      LSLS     r2,r2,#2
        0x10001ef4:    079b        ..      LSLS     r3,r3,#30
        0x10001ef6:    0f9b        ..      LSRS     r3,r3,#30
        0x10001ef8:    431a        .C      ORRS     r2,r2,r3
        0x10001efa:    628a        .b      STR      r2,[r1,#0x28]
        0x10001efc:    6a8a        .j      LDR      r2,[r1,#0x28]
        0x10001efe:    230c        .#      MOVS     r3,#0xc
        0x10001f00:    439a        .C      BICS     r2,r2,r3
        0x10001f02:    7843        Cx      LDRB     r3,[r0,#1]
        0x10001f04:    079b        ..      LSLS     r3,r3,#30
        0x10001f06:    0f1b        ..      LSRS     r3,r3,#28
        0x10001f08:    431a        .C      ORRS     r2,r2,r3
        0x10001f0a:    628a        .b      STR      r2,[r1,#0x28]
        0x10001f0c:    6a8a        .j      LDR      r2,[r1,#0x28]
        0x10001f0e:    2320         #      MOVS     r3,#0x20
        0x10001f10:    439a        .C      BICS     r2,r2,r3
        0x10001f12:    79c3        .y      LDRB     r3,[r0,#7]
        0x10001f14:    07db        ..      LSLS     r3,r3,#31
        0x10001f16:    0e9b        ..      LSRS     r3,r3,#26
        0x10001f18:    431a        .C      ORRS     r2,r2,r3
        0x10001f1a:    628a        .b      STR      r2,[r1,#0x28]
        0x10001f1c:    6a8a        .j      LDR      r2,[r1,#0x28]
        0x10001f1e:    2301        .#      MOVS     r3,#1
        0x10001f20:    7980        .y      LDRB     r0,[r0,#6]
        0x10001f22:    041b        ..      LSLS     r3,r3,#16
        0x10001f24:    07c0        ..      LSLS     r0,r0,#31
        0x10001f26:    439a        .C      BICS     r2,r2,r3
        0x10001f28:    0bc0        ..      LSRS     r0,r0,#15
        0x10001f2a:    4302        .C      ORRS     r2,r2,r0
        0x10001f2c:    628a        .b      STR      r2,[r1,#0x28]
        0x10001f2e:    bd10        ..      POP      {r4,pc}
    $d
        0x10001f30:    4000d000    ...@    DCD    1073795072
    $t
    i.TriggerSARAdcStart
    TriggerSARAdcStart
        0x10001f34:    b510        ..      PUSH     {r4,lr}
        0x10001f36:    4c06        .L      LDR      r4,[pc,#24] ; [0x10001f50] = 0x40150040
        0x10001f38:    6b20         k      LDR      r0,[r4,#0x30]
        0x10001f3a:    2101        .!      MOVS     r1,#1
        0x10001f3c:    4308        .C      ORRS     r0,r0,r1
        0x10001f3e:    6320         c      STR      r0,[r4,#0x30]
        0x10001f40:    f7fefd5a    ..Z.    BL       DelayForCommandExeDone ; 0x100009f8
        0x10001f44:    6b20         k      LDR      r0,[r4,#0x30]
        0x10001f46:    0840        @.      LSRS     r0,r0,#1
        0x10001f48:    0040        @.      LSLS     r0,r0,#1
        0x10001f4a:    6320         c      STR      r0,[r4,#0x30]
        0x10001f4c:    bd10        ..      POP      {r4,pc}
    $d
        0x10001f4e:    0000        ..      DCW    0
        0x10001f50:    40150040    @..@    DCD    1075118144
    $t
    i.__ARM_clz
    __ARM_clz
        0x10001f54:    2120         !      MOVS     r1,#0x20
        0x10001f56:    0c02        ..      LSRS     r2,r0,#16
        0x10001f58:    d001        ..      BEQ      0x10001f5e ; __ARM_clz + 10
        0x10001f5a:    2110        .!      MOVS     r1,#0x10
        0x10001f5c:    4610        .F      MOV      r0,r2
        0x10001f5e:    0a02        ..      LSRS     r2,r0,#8
        0x10001f60:    d001        ..      BEQ      0x10001f66 ; __ARM_clz + 18
        0x10001f62:    4610        .F      MOV      r0,r2
        0x10001f64:    3908        .9      SUBS     r1,r1,#8
        0x10001f66:    0902        ..      LSRS     r2,r0,#4
        0x10001f68:    d001        ..      BEQ      0x10001f6e ; __ARM_clz + 26
        0x10001f6a:    4610        .F      MOV      r0,r2
        0x10001f6c:    1f09        ..      SUBS     r1,r1,#4
        0x10001f6e:    0882        ..      LSRS     r2,r0,#2
        0x10001f70:    d001        ..      BEQ      0x10001f76 ; __ARM_clz + 34
        0x10001f72:    4610        .F      MOV      r0,r2
        0x10001f74:    1e89        ..      SUBS     r1,r1,#2
        0x10001f76:    0842        B.      LSRS     r2,r0,#1
        0x10001f78:    d001        ..      BEQ      0x10001f7e ; __ARM_clz + 42
        0x10001f7a:    1e88        ..      SUBS     r0,r1,#2
        0x10001f7c:    4770        pG      BX       lr
        0x10001f7e:    1a08        ..      SUBS     r0,r1,r0
        0x10001f80:    4770        pG      BX       lr
    i.__ARM_common_switch8
    __ARM_common_switch8
        0x10001f82:    b430        0.      PUSH     {r4,r5}
        0x10001f84:    4674        tF      MOV      r4,lr
        0x10001f86:    1e64        d.      SUBS     r4,r4,#1
        0x10001f88:    7825        %x      LDRB     r5,[r4,#0]
        0x10001f8a:    1c64        d.      ADDS     r4,r4,#1
        0x10001f8c:    42ab        .B      CMP      r3,r5
        0x10001f8e:    d200        ..      BCS      0x10001f92 ; __ARM_common_switch8 + 16
        0x10001f90:    461d        .F      MOV      r5,r3
        0x10001f92:    5d63        c]      LDRB     r3,[r4,r5]
        0x10001f94:    005b        [.      LSLS     r3,r3,#1
        0x10001f96:    18e3        ..      ADDS     r3,r4,r3
        0x10001f98:    bc30        0.      POP      {r4,r5}
        0x10001f9a:    4718        .G      BX       r3
    i.__NVIC_ClearPendingIRQ
    __NVIC_ClearPendingIRQ
        0x10001f9c:    2800        .(      CMP      r0,#0
        0x10001f9e:    db05        ..      BLT      0x10001fac ; __NVIC_ClearPendingIRQ + 16
        0x10001fa0:    06c1        ..      LSLS     r1,r0,#27
        0x10001fa2:    0ec9        ..      LSRS     r1,r1,#27
        0x10001fa4:    2001        .       MOVS     r0,#1
        0x10001fa6:    4088        .@      LSLS     r0,r0,r1
        0x10001fa8:    4901        .I      LDR      r1,[pc,#4] ; [0x10001fb0] = 0xe000e280
        0x10001faa:    6008        .`      STR      r0,[r1,#0]
        0x10001fac:    4770        pG      BX       lr
    $d
        0x10001fae:    0000        ..      DCW    0
        0x10001fb0:    e000e280    ....    DCD    3758154368
    $t
    i.__NVIC_EnableIRQ
    __NVIC_EnableIRQ
        0x10001fb4:    2800        .(      CMP      r0,#0
        0x10001fb6:    db05        ..      BLT      0x10001fc4 ; __NVIC_EnableIRQ + 16
        0x10001fb8:    06c1        ..      LSLS     r1,r0,#27
        0x10001fba:    0ec9        ..      LSRS     r1,r1,#27
        0x10001fbc:    2001        .       MOVS     r0,#1
        0x10001fbe:    4088        .@      LSLS     r0,r0,r1
        0x10001fc0:    4901        .I      LDR      r1,[pc,#4] ; [0x10001fc8] = 0xe000e100
        0x10001fc2:    6008        .`      STR      r0,[r1,#0]
        0x10001fc4:    4770        pG      BX       lr
    $d
        0x10001fc6:    0000        ..      DCW    0
        0x10001fc8:    e000e100    ....    DCD    3758153984
    $t
    i.__NVIC_SetPendingIRQ
    __NVIC_SetPendingIRQ
        0x10001fcc:    2800        .(      CMP      r0,#0
        0x10001fce:    db05        ..      BLT      0x10001fdc ; __NVIC_SetPendingIRQ + 16
        0x10001fd0:    06c1        ..      LSLS     r1,r0,#27
        0x10001fd2:    0ec9        ..      LSRS     r1,r1,#27
        0x10001fd4:    2001        .       MOVS     r0,#1
        0x10001fd6:    4088        .@      LSLS     r0,r0,r1
        0x10001fd8:    4901        .I      LDR      r1,[pc,#4] ; [0x10001fe0] = 0xe000e200
        0x10001fda:    6008        .`      STR      r0,[r1,#0]
        0x10001fdc:    4770        pG      BX       lr
    $d
        0x10001fde:    0000        ..      DCW    0
        0x10001fe0:    e000e200    ....    DCD    3758154240
    $t
    i.__NVIC_SetPriority
    __NVIC_SetPriority
        0x10001fe4:    0783        ..      LSLS     r3,r0,#30
        0x10001fe6:    22ff        ."      MOVS     r2,#0xff
        0x10001fe8:    0edb        ..      LSRS     r3,r3,#27
        0x10001fea:    409a        .@      LSLS     r2,r2,r3
        0x10001fec:    0789        ..      LSLS     r1,r1,#30
        0x10001fee:    0e09        ..      LSRS     r1,r1,#24
        0x10001ff0:    4099        .@      LSLS     r1,r1,r3
        0x10001ff2:    2800        .(      CMP      r0,#0
        0x10001ff4:    db08        ..      BLT      0x10002008 ; __NVIC_SetPriority + 36
        0x10001ff6:    0883        ..      LSRS     r3,r0,#2
        0x10001ff8:    4809        .H      LDR      r0,[pc,#36] ; [0x10002020] = 0xe000e400
        0x10001ffa:    009b        ..      LSLS     r3,r3,#2
        0x10001ffc:    181b        ..      ADDS     r3,r3,r0
        0x10001ffe:    6818        .h      LDR      r0,[r3,#0]
        0x10002000:    4390        .C      BICS     r0,r0,r2
        0x10002002:    4308        .C      ORRS     r0,r0,r1
        0x10002004:    6018        .`      STR      r0,[r3,#0]
        0x10002006:    4770        pG      BX       lr
        0x10002008:    0700        ..      LSLS     r0,r0,#28
        0x1000200a:    0f00        ..      LSRS     r0,r0,#28
        0x1000200c:    3808        .8      SUBS     r0,r0,#8
        0x1000200e:    0883        ..      LSRS     r3,r0,#2
        0x10002010:    4804        .H      LDR      r0,[pc,#16] ; [0x10002024] = 0xe000ed00
        0x10002012:    009b        ..      LSLS     r3,r3,#2
        0x10002014:    181b        ..      ADDS     r3,r3,r0
        0x10002016:    69d8        .i      LDR      r0,[r3,#0x1c]
        0x10002018:    4390        .C      BICS     r0,r0,r2
        0x1000201a:    4308        .C      ORRS     r0,r0,r1
        0x1000201c:    61d8        .a      STR      r0,[r3,#0x1c]
        0x1000201e:    4770        pG      BX       lr
    $d
        0x10002020:    e000e400    ....    DCD    3758154752
        0x10002024:    e000ed00    ....    DCD    3758157056
    $t
    i.aic_IRQHandler
    aic_IRQHandler
        0x10002028:    b5f8        ..      PUSH     {r3-r7,lr}
        0x1000202a:    2002        .       MOVS     r0,#2
        0x1000202c:    f7ffffb6    ....    BL       __NVIC_ClearPendingIRQ ; 0x10001f9c
        0x10002030:    4827        'H      LDR      r0,[pc,#156] ; [0x100020d0] = 0x40007000
        0x10002032:    2400        .$      MOVS     r4,#0
        0x10002034:    6004        .`      STR      r4,[r0,#0]
        0x10002036:    6841        Ah      LDR      r1,[r0,#4]
        0x10002038:    2900        .)      CMP      r1,#0
        0x1000203a:    d00a        ..      BEQ      0x10002052 ; aic_IRQHandler + 42
        0x1000203c:    0649        I.      LSLS     r1,r1,#25
        0x1000203e:    d508        ..      BPL      0x10002052 ; aic_IRQHandler + 42
        0x10002040:    6942        Bi      LDR      r2,[r0,#0x14]
        0x10002042:    2140        @!      MOVS     r1,#0x40
        0x10002044:    430a        .C      ORRS     r2,r2,r1
        0x10002046:    6142        Ba      STR      r2,[r0,#0x14]
        0x10002048:    6942        Bi      LDR      r2,[r0,#0x14]
        0x1000204a:    438a        .C      BICS     r2,r2,r1
        0x1000204c:    6142        Ba      STR      r2,[r0,#0x14]
        0x1000204e:    f7fefe47    ..G.    BL       IwdgCallback ; 0x10000ce0
        0x10002052:    4920         I      LDR      r1,[pc,#128] ; [0x100020d4] = 0x4114
        0x10002054:    2501        .%      MOVS     r5,#1
        0x10002056:    784a        Jx      LDRB     r2,[r1,#1]
        0x10002058:    481f        .H      LDR      r0,[pc,#124] ; [0x100020d8] = 0x415a
        0x1000205a:    2a01        .*      CMP      r2,#1
        0x1000205c:    d01b        ..      BEQ      0x10002096 ; aic_IRQHandler + 110
        0x1000205e:    4a1f        .J      LDR      r2,[pc,#124] ; [0x100020dc] = 0x469c
        0x10002060:    4b1f        .K      LDR      r3,[pc,#124] ; [0x100020e0] = 0x46a8
        0x10002062:    78d6        .x      LDRB     r6,[r2,#3]
        0x10002064:    2e00        ..      CMP      r6,#0
        0x10002066:    d02b        +.      BEQ      0x100020c0 ; aic_IRQHandler + 152
        0x10002068:    7997        .y      LDRB     r7,[r2,#6]
        0x1000206a:    575e        ^W      LDRSB    r6,[r3,r5]
        0x1000206c:    42b7        .B      CMP      r7,r6
        0x1000206e:    dc1b        ..      BGT      0x100020a8 ; aic_IRQHandler + 128
        0x10002070:    461f        .F      MOV      r7,r3
        0x10002072:    2302        .#      MOVS     r3,#2
        0x10002074:    8912        ..      LDRH     r2,[r2,#8]
        0x10002076:    5efb        .^      LDRSH    r3,[r7,r3]
        0x10002078:    429a        .B      CMP      r2,r3
        0x1000207a:    db15        ..      BLT      0x100020a8 ; aic_IRQHandler + 128
        0x1000207c:    4a17        .J      LDR      r2,[pc,#92] ; [0x100020dc] = 0x469c
        0x1000207e:    8957        W.      LDRH     r7,[r2,#0xa]
        0x10002080:    429f        .B      CMP      r7,r3
        0x10002082:    dc11        ..      BGT      0x100020a8 ; aic_IRQHandler + 128
        0x10002084:    4916        .I      LDR      r1,[pc,#88] ; [0x100020e0] = 0x46a8
        0x10002086:    7a49        Iz      LDRB     r1,[r1,#9]
        0x10002088:    2901        .)      CMP      r1,#1
        0x1000208a:    d103        ..      BNE      0x10002094 ; aic_IRQHandler + 108
        0x1000208c:    7891        .x      LDRB     r1,[r2,#2]
        0x1000208e:    2900        .)      CMP      r1,#0
        0x10002090:    d000        ..      BEQ      0x10002094 ; aic_IRQHandler + 108
        0x10002092:    7005        .p      STRB     r5,[r0,#0]
        0x10002094:    bdf8        ..      POP      {r3-r7,pc}
        0x10002096:    22b8        ."      MOVS     r2,#0xb8
        0x10002098:    8082        ..      STRH     r2,[r0,#4]
        0x1000209a:    2202        ."      MOVS     r2,#2
        0x1000209c:    70c2        .p      STRB     r2,[r0,#3]
        0x1000209e:    7044        Dp      STRB     r4,[r0,#1]
        0x100020a0:    7084        .p      STRB     r4,[r0,#2]
        0x100020a2:    7005        .p      STRB     r5,[r0,#0]
        0x100020a4:    704c        Lp      STRB     r4,[r1,#1]
        0x100020a6:    bdf8        ..      POP      {r3-r7,pc}
        0x100020a8:    2e00        ..      CMP      r6,#0
        0x100020aa:    d0fc        ..      BEQ      0x100020a6 ; aic_IRQHandler + 126
        0x100020ac:    788a        .x      LDRB     r2,[r1,#2]
        0x100020ae:    1c52        R.      ADDS     r2,r2,#1
        0x100020b0:    b2d2        ..      UXTB     r2,r2
        0x100020b2:    708a        .p      STRB     r2,[r1,#2]
        0x100020b4:    2a32        2*      CMP      r2,#0x32
        0x100020b6:    d3f6        ..      BCC      0x100020a6 ; aic_IRQHandler + 126
        0x100020b8:    708c        .p      STRB     r4,[r1,#2]
        0x100020ba:    2102        .!      MOVS     r1,#2
        0x100020bc:    7001        .p      STRB     r1,[r0,#0]
        0x100020be:    bdf8        ..      POP      {r3-r7,pc}
        0x100020c0:    7891        .x      LDRB     r1,[r2,#2]
        0x100020c2:    2900        .)      CMP      r1,#0
        0x100020c4:    d0fb        ..      BEQ      0x100020be ; aic_IRQHandler + 150
        0x100020c6:    7a59        Yz      LDRB     r1,[r3,#9]
        0x100020c8:    2901        .)      CMP      r1,#1
        0x100020ca:    d0e2        ..      BEQ      0x10002092 ; aic_IRQHandler + 106
        0x100020cc:    bdf8        ..      POP      {r3-r7,pc}
    $d
        0x100020ce:    0000        ..      DCW    0
        0x100020d0:    40007000    .p.@    DCD    1073770496
        0x100020d4:    00004114    .A..    DCD    16660
        0x100020d8:    0000415a    ZA..    DCD    16730
        0x100020dc:    0000469c    .F..    DCD    18076
        0x100020e0:    000046a8    .F..    DCD    18088
    $t
    i.delay1ms
    delay1ms
        0x100020e4:    b5f8        ..      PUSH     {r3-r7,lr}
        0x100020e6:    4605        .F      MOV      r5,r0
        0x100020e8:    4c0f        .L      LDR      r4,[pc,#60] ; [0x10002128] = 0xe000e000
        0x100020ea:    480e        .H      LDR      r0,[pc,#56] ; [0x10002124] = 0xffffff
        0x100020ec:    6160        `a      STR      r0,[r4,#0x14]
        0x100020ee:    2600        .&      MOVS     r6,#0
        0x100020f0:    61a6        .a      STR      r6,[r4,#0x18]
        0x100020f2:    2005        .       MOVS     r0,#5
        0x100020f4:    6120         a      STR      r0,[r4,#0x10]
        0x100020f6:    480d        .H      LDR      r0,[pc,#52] ; [0x1000212c] = 0x4138
        0x100020f8:    2701        .'      MOVS     r7,#1
        0x100020fa:    6800        .h      LDR      r0,[r0,#0]
        0x100020fc:    063f        ?.      LSLS     r7,r7,#24
        0x100020fe:    9000        ..      STR      r0,[sp,#0]
        0x10002100:    e009        ..      B        0x10002116 ; delay1ms + 50
        0x10002102:    61a6        .a      STR      r6,[r4,#0x18]
        0x10002104:    217d        }!      MOVS     r1,#0x7d
        0x10002106:    00c9        ..      LSLS     r1,r1,#3
        0x10002108:    9800        ..      LDR      r0,[sp,#0]
        0x1000210a:    f7fdffc3    ....    BL       __aeabi_uidiv ; 0x10000094
        0x1000210e:    1a38        8.      SUBS     r0,r7,r0
        0x10002110:    69a1        .i      LDR      r1,[r4,#0x18]
        0x10002112:    4281        .B      CMP      r1,r0
        0x10002114:    d8fc        ..      BHI      0x10002110 ; delay1ms + 44
        0x10002116:    1e6d        m.      SUBS     r5,r5,#1
        0x10002118:    d2f3        ..      BCS      0x10002102 ; delay1ms + 30
        0x1000211a:    6920         i      LDR      r0,[r4,#0x10]
        0x1000211c:    0840        @.      LSRS     r0,r0,#1
        0x1000211e:    0040        @.      LSLS     r0,r0,#1
        0x10002120:    6120         a      STR      r0,[r4,#0x10]
        0x10002122:    bdf8        ..      POP      {r3-r7,pc}
    $d
        0x10002124:    00ffffff    ....    DCD    16777215
        0x10002128:    e000e000    ....    DCD    3758153728
        0x1000212c:    00004138    8A..    DCD    16696
    $t
    i.fic_IRQHandler
    fic_IRQHandler
        0x10002130:    b5f8        ..      PUSH     {r3-r7,lr}
        0x10002132:    2100        .!      MOVS     r1,#0
        0x10002134:    487b        {H      LDR      r0,[pc,#492] ; [0x10002324] = 0x40020000
        0x10002136:    43c9        .C      MVNS     r1,r1
        0x10002138:    6141        Aa      STR      r1,[r0,#0x14]
        0x1000213a:    2400        .$      MOVS     r4,#0
        0x1000213c:    6144        Da      STR      r4,[r0,#0x14]
        0x1000213e:    a07a        z.      ADR      r0,{pc}+0x1ea ; 0x10002328
        0x10002140:    6800        .h      LDR      r0,[r0,#0]
        0x10002142:    9000        ..      STR      r0,[sp,#0]
        0x10002144:    4879        yH      LDR      r0,[pc,#484] ; [0x1000232c] = 0x4114
        0x10002146:    88c1        ..      LDRH     r1,[r0,#6]
        0x10002148:    2954        T)      CMP      r1,#0x54
        0x1000214a:    d876        v.      BHI      0x1000223a ; fic_IRQHandler + 266
        0x1000214c:    4b78        xK      LDR      r3,[pc,#480] ; [0x10002330] = 0x40150040
        0x1000214e:    6b18        .k      LDR      r0,[r3,#0x30]
        0x10002150:    2201        ."      MOVS     r2,#1
        0x10002152:    4310        .C      ORRS     r0,r0,r2
        0x10002154:    6318        .c      STR      r0,[r3,#0x30]
        0x10002156:    4878        xH      LDR      r0,[pc,#480] ; [0x10002338] = 0x40200200
        0x10002158:    4d76        vM      LDR      r5,[pc,#472] ; [0x10002334] = 0x41e4
        0x1000215a:    6085        .`      STR      r5,[r0,#8]
        0x1000215c:    68c2        .h      LDR      r2,[r0,#0xc]
        0x1000215e:    0b52        R.      LSRS     r2,r2,#13
        0x10002160:    0352        R.      LSLS     r2,r2,#13
        0x10002162:    3220         2      ADDS     r2,r2,#0x20
        0x10002164:    60c2        .`      STR      r2,[r0,#0xc]
        0x10002166:    4875        uH      LDR      r0,[pc,#468] ; [0x1000233c] = 0x40200000
        0x10002168:    6802        .h      LDR      r2,[r0,#0]
        0x1000216a:    0286        ..      LSLS     r6,r0,#10
        0x1000216c:    4332        2C      ORRS     r2,r2,r6
        0x1000216e:    6002        .`      STR      r2,[r0,#0]
        0x10002170:    2200        ."      MOVS     r2,#0
        0x10002172:    4610        .F      MOV      r0,r2
        0x10002174:    0086        ..      LSLS     r6,r0,#2
        0x10002176:    59ae        .Y      LDR      r6,[r5,r6]
        0x10002178:    1c40        @.      ADDS     r0,r0,#1
        0x1000217a:    04b7        ..      LSLS     r7,r6,#18
        0x1000217c:    0cbf        ..      LSRS     r7,r7,#18
        0x1000217e:    18ba        ..      ADDS     r2,r7,r2
        0x10002180:    0bb6        ..      LSRS     r6,r6,#14
        0x10002182:    18b2        ..      ADDS     r2,r6,r2
        0x10002184:    2808        .(      CMP      r0,#8
        0x10002186:    d3f5        ..      BCC      0x10002174 ; fic_IRQHandler + 68
        0x10002188:    6b18        .k      LDR      r0,[r3,#0x30]
        0x1000218a:    0840        @.      LSRS     r0,r0,#1
        0x1000218c:    0040        @.      LSLS     r0,r0,#1
        0x1000218e:    6318        .c      STR      r0,[r3,#0x30]
        0x10002190:    4866        fH      LDR      r0,[pc,#408] ; [0x1000232c] = 0x4114
        0x10002192:    4d6b        kM      LDR      r5,[pc,#428] ; [0x10002340] = 0x40001000
        0x10002194:    2604        .&      MOVS     r6,#4
        0x10002196:    2340        @#      MOVS     r3,#0x40
        0x10002198:    2924        $)      CMP      r1,#0x24
        0x1000219a:    d018        ..      BEQ      0x100021ce ; fic_IRQHandler + 158
        0x1000219c:    dc04        ..      BGT      0x100021a8 ; fic_IRQHandler + 120
        0x1000219e:    2900        .)      CMP      r1,#0
        0x100021a0:    d007        ..      BEQ      0x100021b2 ; fic_IRQHandler + 130
        0x100021a2:    2918        .)      CMP      r1,#0x18
        0x100021a4:    d124        $.      BNE      0x100021f0 ; fic_IRQHandler + 192
        0x100021a6:    e009        ..      B        0x100021bc ; fic_IRQHandler + 140
        0x100021a8:    293c        <)      CMP      r1,#0x3c
        0x100021aa:    d018        ..      BEQ      0x100021de ; fic_IRQHandler + 174
        0x100021ac:    2948        H)      CMP      r1,#0x48
        0x100021ae:    d11f        ..      BNE      0x100021f0 ; fic_IRQHandler + 192
        0x100021b0:    e024        $.      B        0x100021fc ; fic_IRQHandler + 204
        0x100021b2:    8103        ..      STRH     r3,[r0,#8]
        0x100021b4:    7004        .p      STRB     r4,[r0,#0]
        0x100021b6:    686f        oh      LDR      r7,[r5,#4]
        0x100021b8:    4337        7C      ORRS     r7,r7,r6
        0x100021ba:    e006        ..      B        0x100021ca ; fic_IRQHandler + 154
        0x100021bc:    4f61        aO      LDR      r7,[pc,#388] ; [0x10002344] = 0x413e
        0x100021be:    883f        ?.      LDRH     r7,[r7,#0]
        0x100021c0:    8107        ..      STRH     r7,[r0,#8]
        0x100021c2:    2f00        ./      CMP      r7,#0
        0x100021c4:    d114        ..      BNE      0x100021f0 ; fic_IRQHandler + 192
        0x100021c6:    686f        oh      LDR      r7,[r5,#4]
        0x100021c8:    43b7        .C      BICS     r7,r7,r6
        0x100021ca:    606f        o`      STR      r7,[r5,#4]
        0x100021cc:    e010        ..      B        0x100021f0 ; fic_IRQHandler + 192
        0x100021ce:    8103        ..      STRH     r3,[r0,#8]
        0x100021d0:    686f        oh      LDR      r7,[r5,#4]
        0x100021d2:    43b7        .C      BICS     r7,r7,r6
        0x100021d4:    606f        o`      STR      r7,[r5,#4]
        0x100021d6:    686e        nh      LDR      r6,[r5,#4]
        0x100021d8:    2702        .'      MOVS     r7,#2
        0x100021da:    433e        >C      ORRS     r6,r6,r7
        0x100021dc:    e007        ..      B        0x100021ee ; fic_IRQHandler + 190
        0x100021de:    4e5a        ZN      LDR      r6,[pc,#360] ; [0x10002348] = 0x4140
        0x100021e0:    8836        6.      LDRH     r6,[r6,#0]
        0x100021e2:    8106        ..      STRH     r6,[r0,#8]
        0x100021e4:    2e00        ..      CMP      r6,#0
        0x100021e6:    d103        ..      BNE      0x100021f0 ; fic_IRQHandler + 192
        0x100021e8:    686e        nh      LDR      r6,[r5,#4]
        0x100021ea:    2702        .'      MOVS     r7,#2
        0x100021ec:    43be        .C      BICS     r6,r6,r7
        0x100021ee:    606e        n`      STR      r6,[r5,#4]
        0x100021f0:    4d56        VM      LDR      r5,[pc,#344] ; [0x1000234c] = 0x4160
        0x100021f2:    8aae        ..      LDRH     r6,[r5,#0x14]
        0x100021f4:    4d56        VM      LDR      r5,[pc,#344] ; [0x10002350] = 0x400b0000
        0x100021f6:    2e00        ..      CMP      r6,#0
        0x100021f8:    d120         .      BNE      0x1000223c ; fic_IRQHandler + 268
        0x100021fa:    e001        ..      B        0x10002200 ; fic_IRQHandler + 208
        0x100021fc:    8104        ..      STRH     r4,[r0,#8]
        0x100021fe:    e7f3        ..      B        0x100021e8 ; fic_IRQHandler + 184
        0x10002200:    8906        ..      LDRH     r6,[r0,#8]
        0x10002202:    46b4        .F      MOV      r12,r6
        0x10002204:    2e00        ..      CMP      r6,#0
        0x10002206:    d019        ..      BEQ      0x1000223c ; fic_IRQHandler + 268
        0x10002208:    7807        .x      LDRB     r7,[r0,#0]
        0x1000220a:    466e        nF      MOV      r6,sp
        0x1000220c:    57f6        .W      LDRSB    r6,[r6,r7]
        0x1000220e:    4466        fD      ADD      r6,r6,r12
        0x10002210:    11b6        ..      ASRS     r6,r6,#6
        0x10002212:    0636        6.      LSLS     r6,r6,#24
        0x10002214:    0e36        6.      LSRS     r6,r6,#24
        0x10002216:    d011        ..      BEQ      0x1000223c ; fic_IRQHandler + 268
        0x10002218:    1b9b        ..      SUBS     r3,r3,r6
        0x1000221a:    61eb        .a      STR      r3,[r5,#0x1c]
        0x1000221c:    7803        .x      LDRB     r3,[r0,#0]
        0x1000221e:    1c5b        [.      ADDS     r3,r3,#1
        0x10002220:    b2db        ..      UXTB     r3,r3
        0x10002222:    7003        .p      STRB     r3,[r0,#0]
        0x10002224:    2b04        .+      CMP      r3,#4
        0x10002226:    d300        ..      BCC      0x1000222a ; fic_IRQHandler + 250
        0x10002228:    7004        .p      STRB     r4,[r0,#0]
        0x1000222a:    4d40        @M      LDR      r5,[pc,#256] ; [0x1000232c] = 0x4114
        0x1000222c:    460b        .F      MOV      r3,r1
        0x1000222e:    3b11        .;      SUBS     r3,r3,#0x11
        0x10002230:    692d        -i      LDR      r5,[r5,#0x10]
        0x10002232:    2b07        .+      CMP      r3,#7
        0x10002234:    d804        ..      BHI      0x10002240 ; fic_IRQHandler + 272
        0x10002236:    18a9        ..      ADDS     r1,r5,r2
        0x10002238:    6101        .a      STR      r1,[r0,#0x10]
        0x1000223a:    e061        a.      B        0x10002300 ; fic_IRQHandler + 464
        0x1000223c:    61ec        .a      STR      r4,[r5,#0x1c]
        0x1000223e:    e7ed        ..      B        0x1000221c ; fic_IRQHandler + 236
        0x10002240:    4b3a        :K      LDR      r3,[pc,#232] ; [0x1000232c] = 0x4114
        0x10002242:    460e        .F      MOV      r6,r1
        0x10002244:    3e1d        .>      SUBS     r6,r6,#0x1d
        0x10002246:    695b        [i      LDR      r3,[r3,#0x14]
        0x10002248:    2e07        ..      CMP      r6,#7
        0x1000224a:    d802        ..      BHI      0x10002252 ; fic_IRQHandler + 290
        0x1000224c:    1899        ..      ADDS     r1,r3,r2
        0x1000224e:    6141        Aa      STR      r1,[r0,#0x14]
        0x10002250:    e056        V.      B        0x10002300 ; fic_IRQHandler + 464
        0x10002252:    4f36        6O      LDR      r7,[pc,#216] ; [0x1000232c] = 0x4114
        0x10002254:    460e        .F      MOV      r6,r1
        0x10002256:    3e35        5>      SUBS     r6,r6,#0x35
        0x10002258:    69bf        .i      LDR      r7,[r7,#0x18]
        0x1000225a:    2e07        ..      CMP      r6,#7
        0x1000225c:    d802        ..      BHI      0x10002264 ; fic_IRQHandler + 308
        0x1000225e:    18b9        ..      ADDS     r1,r7,r2
        0x10002260:    6181        .a      STR      r1,[r0,#0x18]
        0x10002262:    e04d        M.      B        0x10002300 ; fic_IRQHandler + 464
        0x10002264:    4831        1H      LDR      r0,[pc,#196] ; [0x1000232c] = 0x4114
        0x10002266:    460e        .F      MOV      r6,r1
        0x10002268:    3e41        A>      SUBS     r6,r6,#0x41
        0x1000226a:    69c0        .i      LDR      r0,[r0,#0x1c]
        0x1000226c:    2e07        ..      CMP      r6,#7
        0x1000226e:    d803        ..      BHI      0x10002278 ; fic_IRQHandler + 328
        0x10002270:    492e        .I      LDR      r1,[pc,#184] ; [0x1000232c] = 0x4114
        0x10002272:    1880        ..      ADDS     r0,r0,r2
        0x10002274:    61c8        .a      STR      r0,[r1,#0x1c]
        0x10002276:    e043        C.      B        0x10002300 ; fic_IRQHandler + 464
        0x10002278:    4e2c        ,N      LDR      r6,[pc,#176] ; [0x1000232c] = 0x4114
        0x1000227a:    2949        I)      CMP      r1,#0x49
        0x1000227c:    d003        ..      BEQ      0x10002286 ; fic_IRQHandler + 342
        0x1000227e:    88b0        ..      LDRH     r0,[r6,#4]
        0x10002280:    2800        .(      CMP      r0,#0
        0x10002282:    d011        ..      BEQ      0x100022a8 ; fic_IRQHandler + 376
        0x10002284:    e03c        <.      B        0x10002300 ; fic_IRQHandler + 464
        0x10002286:    4933        3I      LDR      r1,[pc,#204] ; [0x10002354] = 0x4204
        0x10002288:    091a        ..      LSRS     r2,r3,#4
        0x1000228a:    608f        .`      STR      r7,[r1,#8]
        0x1000228c:    600d        .`      STR      r5,[r1,#0]
        0x1000228e:    604b        K`      STR      r3,[r1,#4]
        0x10002290:    610a        .a      STR      r2,[r1,#0x10]
        0x10002292:    60c8        .`      STR      r0,[r1,#0xc]
        0x10002294:    0900        ..      LSRS     r0,r0,#4
        0x10002296:    6148        Ha      STR      r0,[r1,#0x14]
        0x10002298:    6134        4a      STR      r4,[r6,#0x10]
        0x1000229a:    6174        ta      STR      r4,[r6,#0x14]
        0x1000229c:    61b4        .a      STR      r4,[r6,#0x18]
        0x1000229e:    2001        .       MOVS     r0,#1
        0x100022a0:    61f4        .a      STR      r4,[r6,#0x1c]
        0x100022a2:    f7fffe93    ....    BL       __NVIC_SetPendingIRQ ; 0x10001fcc
        0x100022a6:    e02b        +.      B        0x10002300 ; fic_IRQHandler + 464
        0x100022a8:    4d21        !M      LDR      r5,[pc,#132] ; [0x10002330] = 0x40150040
        0x100022aa:    3d40        @=      SUBS     r5,r5,#0x40
        0x100022ac:    294a        J)      CMP      r1,#0x4a
        0x100022ae:    d009        ..      BEQ      0x100022c4 ; fic_IRQHandler + 404
        0x100022b0:    4608        .F      MOV      r0,r1
        0x100022b2:    384d        M8      SUBS     r0,r0,#0x4d
        0x100022b4:    2807        .(      CMP      r0,#7
        0x100022b6:    d823        #.      BHI      0x10002300 ; fic_IRQHandler + 464
        0x100022b8:    6a30        0j      LDR      r0,[r6,#0x20]
        0x100022ba:    1880        ..      ADDS     r0,r0,r2
        0x100022bc:    6230        0b      STR      r0,[r6,#0x20]
        0x100022be:    2954        T)      CMP      r1,#0x54
        0x100022c0:    d005        ..      BEQ      0x100022ce ; fic_IRQHandler + 414
        0x100022c2:    e01d        ..      B        0x10002300 ; fic_IRQHandler + 464
        0x100022c4:    6aa8        .j      LDR      r0,[r5,#0x28]
        0x100022c6:    0900        ..      LSRS     r0,r0,#4
        0x100022c8:    0100        ..      LSLS     r0,r0,#4
        0x100022ca:    1cc0        ..      ADDS     r0,r0,#3
        0x100022cc:    e017        ..      B        0x100022fe ; fic_IRQHandler + 462
        0x100022ce:    0ac0        ..      LSRS     r0,r0,#11
        0x100022d0:    6230        0b      STR      r0,[r6,#0x20]
        0x100022d2:    60f0        .`      STR      r0,[r6,#0xc]
        0x100022d4:    38a1        .8      SUBS     r0,r0,#0xa1
        0x100022d6:    b201        ..      SXTH     r1,r0
        0x100022d8:    481f        .H      LDR      r0,[pc,#124] ; [0x10002358] = 0x4150
        0x100022da:    2910        .)      CMP      r1,#0x10
        0x100022dc:    8001        ..      STRH     r1,[r0,#0]
        0x100022de:    dd01        ..      BLE      0x100022e4 ; fic_IRQHandler + 436
        0x100022e0:    2110        .!      MOVS     r1,#0x10
        0x100022e2:    8001        ..      STRH     r1,[r0,#0]
        0x100022e4:    2100        .!      MOVS     r1,#0
        0x100022e6:    5e41        A^      LDRSH    r1,[r0,r1]
        0x100022e8:    2900        .)      CMP      r1,#0
        0x100022ea:    da03        ..      BGE      0x100022f4 ; fic_IRQHandler + 452
        0x100022ec:    2102        .!      MOVS     r1,#2
        0x100022ee:    2001        .       MOVS     r0,#1
        0x100022f0:    f7fefb93    ....    BL       GPIO_ClearBits ; 0x10000a1a
        0x100022f4:    6234        4b      STR      r4,[r6,#0x20]
        0x100022f6:    6aa8        .j      LDR      r0,[r5,#0x28]
        0x100022f8:    0900        ..      LSRS     r0,r0,#4
        0x100022fa:    0100        ..      LSLS     r0,r0,#4
        0x100022fc:    1c80        ..      ADDS     r0,r0,#2
        0x100022fe:    62a8        .b      STR      r0,[r5,#0x28]
        0x10002300:    480a        .H      LDR      r0,[pc,#40] ; [0x1000232c] = 0x4114
        0x10002302:    88c1        ..      LDRH     r1,[r0,#6]
        0x10002304:    1c49        I.      ADDS     r1,r1,#1
        0x10002306:    b289        ..      UXTH     r1,r1
        0x10002308:    80c1        ..      STRH     r1,[r0,#6]
        0x1000230a:    2996        .)      CMP      r1,#0x96
        0x1000230c:    d309        ..      BCC      0x10002322 ; fic_IRQHandler + 498
        0x1000230e:    80c4        ..      STRH     r4,[r0,#6]
        0x10002310:    8881        ..      LDRH     r1,[r0,#4]
        0x10002312:    22e1        ."      MOVS     r2,#0xe1
        0x10002314:    1c49        I.      ADDS     r1,r1,#1
        0x10002316:    b289        ..      UXTH     r1,r1
        0x10002318:    0112        ..      LSLS     r2,r2,#4
        0x1000231a:    8081        ..      STRH     r1,[r0,#4]
        0x1000231c:    4291        .B      CMP      r1,r2
        0x1000231e:    d300        ..      BCC      0x10002322 ; fic_IRQHandler + 498
        0x10002320:    8084        ..      STRH     r4,[r0,#4]
        0x10002322:    bdf8        ..      POP      {r3-r7,pc}
    $d
        0x10002324:    40020000    ...@    DCD    1073872896
        0x10002328:    00c00040    @...    DCD    12582976
        0x1000232c:    00004114    .A..    DCD    16660
        0x10002330:    40150040    @..@    DCD    1075118144
        0x10002334:    000041e4    .A..    DCD    16868
        0x10002338:    40200200    .. @    DCD    1075839488
        0x1000233c:    40200000    .. @    DCD    1075838976
        0x10002340:    40001000    ...@    DCD    1073745920
        0x10002344:    0000413e    >A..    DCD    16702
        0x10002348:    00004140    @A..    DCD    16704
        0x1000234c:    00004160    `A..    DCD    16736
        0x10002350:    400b0000    ...@    DCD    1074462720
        0x10002354:    00004204    .B..    DCD    16900
        0x10002358:    00004150    PA..    DCD    16720
    $t
    i.lic_IRQHandler
    lic_IRQHandler
        0x1000235c:    b510        ..      PUSH     {r4,lr}
        0x1000235e:    2001        .       MOVS     r0,#1
        0x10002360:    f7fffe1c    ....    BL       __NVIC_ClearPendingIRQ ; 0x10001f9c
        0x10002364:    f7fff9f8    ....    BL       Process_SampleData ; 0x10001758
        0x10002368:    2800        .(      CMP      r0,#0
        0x1000236a:    d009        ..      BEQ      0x10002380 ; lic_IRQHandler + 36
        0x1000236c:    f7fefdfa    ....    BL       Light_ProbeDriveAdjust ; 0x10000f64
        0x10002370:    2800        .(      CMP      r0,#0
        0x10002372:    d006        ..      BEQ      0x10002382 ; lic_IRQHandler + 38
        0x10002374:    2000        .       MOVS     r0,#0
        0x10002376:    4904        .I      LDR      r1,[pc,#16] ; [0x10002388] = 0x46a8
        0x10002378:    7288        .r      STRB     r0,[r1,#0xa]
        0x1000237a:    2002        .       MOVS     r0,#2
        0x1000237c:    f7fffe26    ..&.    BL       __NVIC_SetPendingIRQ ; 0x10001fcc
        0x10002380:    bd10        ..      POP      {r4,pc}
        0x10002382:    2001        .       MOVS     r0,#1
        0x10002384:    e7f7        ..      B        0x10002376 ; lic_IRQHandler + 26
    $d
        0x10002386:    0000        ..      DCW    0
        0x10002388:    000046a8    .F..    DCD    18088
    $d.realdata
    .constdata
        0x1000238c:    40150068    h..@    DCD    1075118184
        0x10002390:    4015006c    l..@    DCD    1075118188
        0x10002394:    40150068    h..@    DCD    1075118184
        0x10002398:    4015006c    l..@    DCD    1075118188
        0x1000239c:    40150068    h..@    DCD    1075118184
        0x100023a0:    4015006c    l..@    DCD    1075118188
        0x100023a4:    40150068    h..@    DCD    1075118184
        0x100023a8:    4015006c    l..@    DCD    1075118188
    .constdata
    gSampleFIR
        0x100023ac:    3c6e33f3    .3n<    DCD    1013855219
        0x100023b0:    be5b7e4b    K~[.    DCD    3193667147
        0x100023b4:    bf11c737    7...    DCD    3205613367
        0x100023b8:    bf86cc85    ....    DCD    3213282437
        0x100023bc:    bfb70e52    R...    DCD    3216445010
        0x100023c0:    bfaacbc2    ....    DCD    3215641538
        0x100023c4:    bec7508f    .P..    DCD    3200733327
        0x100023c8:    3fc8c447    G..?    DCD    1070122055
        0x100023cc:    4087fb9e    ...@    DCD    1082653598
        0x100023d0:    40d9113c    <..@    DCD    1087967548
        0x100023d4:    40fa9303    ...@    DCD    1090163459
        0x100023d8:    40bfb1e5    ...@    DCD    1086304741
        0x100023dc:    3ee2532c    ,S.>    DCD    1055019820
        0x100023e0:    c1063d5b    [=..    DCD    3238411611
        0x100023e4:    c1936994    .i..    DCD    3247663508
        0x100023e8:    c1d0635e    ^c..    DCD    3251659614
        0x100023ec:    c1d6caee    ....    DCD    3252079342
        0x100023f0:    c1874042    B@..    DCD    3246866498
        0x100023f4:    40b8ec70    p..@    DCD    1085860976
        0x100023f8:    4220b08f    .. B    DCD    1109438607
        0x100023fc:    42a3c1a1    ...B    DCD    1118028193
        0x10002400:    42f7a90b    ...B    DCD    1123526923
        0x10002404:    431de702    ...C    DCD    1126033154
        0x10002408:    43310057    W.1C    DCD    1127284823

** Section #2 'JUMP_TABLE' (SHT_PROGBITS) [SHF_ALLOC + SHF_WRITE]
    Size   : 32 bytes (alignment 4)
    Address: 0x00004000


** Section #3 'RW_IRAM1' (SHT_PROGBITS) [SHF_ALLOC + SHF_EXECINSTR]
    Size   : 244 bytes (alignment 4)
    Address: 0x00004020

    $t
    RAMCODE
    Flash_ConfigRCTC
        0x00004020:    493a        :I      LDR      r1,[pc,#232] ; [0x410c] = 0x10ff0000
        0x00004022:    680a        .h      LDR      r2,[r1,#0]
        0x00004024:    680a        .h      LDR      r2,[r1,#0]
        0x00004026:    4b3a        :K      LDR      r3,[pc,#232] ; [0x4110] = 0xfff0
        0x00004028:    401a        .@      ANDS     r2,r2,r3
        0x0000402a:    4302        .C      ORRS     r2,r2,r0
        0x0000402c:    600a        .`      STR      r2,[r1,#0]
        0x0000402e:    4770        pG      BX       lr
    Flash_Erase
        0x00004030:    b672        r.      CPSID    i
        0x00004032:    4936        6I      LDR      r1,[pc,#216] ; [0x410c] = 0x10ff0000
        0x00004034:    68ca        .h      LDR      r2,[r1,#0xc]
        0x00004036:    2303        .#      MOVS     r3,#3
        0x00004038:    061b        ..      LSLS     r3,r3,#24
        0x0000403a:    439a        .C      BICS     r2,r2,r3
        0x0000403c:    60ca        .`      STR      r2,[r1,#0xc]
        0x0000403e:    68ca        .h      LDR      r2,[r1,#0xc]
        0x00004040:    0540        @.      LSLS     r0,r0,#21
        0x00004042:    0ad2        ..      LSRS     r2,r2,#11
        0x00004044:    02d2        ..      LSLS     r2,r2,#11
        0x00004046:    0d40        @.      LSRS     r0,r0,#21
        0x00004048:    4302        .C      ORRS     r2,r2,r0
        0x0000404a:    60ca        .`      STR      r2,[r1,#0xc]
        0x0000404c:    6908        .i      LDR      r0,[r1,#0x10]
        0x0000404e:    2201        ."      MOVS     r2,#1
        0x00004050:    4310        .C      ORRS     r0,r0,r2
        0x00004052:    6108        .a      STR      r0,[r1,#0x10]
        0x00004054:    6948        Hi      LDR      r0,[r1,#0x14]
        0x00004056:    0340        @.      LSLS     r0,r0,#13
        0x00004058:    d4fc        ..      BMI      0x4054 ; Flash_Erase + 36
        0x0000405a:    b662        b.      CPSIE    i
        0x0000405c:    4770        pG      BX       lr
    Flash_Write
        0x0000405e:    b510        ..      PUSH     {r4,lr}
        0x00004060:    b672        r.      CPSID    i
        0x00004062:    4a2a        *J      LDR      r2,[pc,#168] ; [0x410c] = 0x10ff0000
        0x00004064:    68d3        .h      LDR      r3,[r2,#0xc]
        0x00004066:    2403        .$      MOVS     r4,#3
        0x00004068:    0624        $.      LSLS     r4,r4,#24
        0x0000406a:    43a3        .C      BICS     r3,r3,r4
        0x0000406c:    60d3        .`      STR      r3,[r2,#0xc]
        0x0000406e:    6001        .`      STR      r1,[r0,#0]
        0x00004070:    6950        Pi      LDR      r0,[r2,#0x14]
        0x00004072:    03c0        ..      LSLS     r0,r0,#15
        0x00004074:    d4fc        ..      BMI      0x4070 ; Flash_Write + 18
        0x00004076:    b662        b.      CPSIE    i
        0x00004078:    bd10        ..      POP      {r4,pc}
    NVR_Erase
        0x0000407a:    b570        p.      PUSH     {r4-r6,lr}
        0x0000407c:    2200        ."      MOVS     r2,#0
        0x0000407e:    1e53        S.      SUBS     r3,r2,#1
        0x00004080:    2806        .(      CMP      r0,#6
        0x00004082:    d826        &.      BHI      0x40d2 ; NVR_Erase + 88
        0x00004084:    4921        !I      LDR      r1,[pc,#132] ; [0x410c] = 0x10ff0000
        0x00004086:    68cc        .h      LDR      r4,[r1,#0xc]
        0x00004088:    2503        .%      MOVS     r5,#3
        0x0000408a:    062d        -.      LSLS     r5,r5,#24
        0x0000408c:    43ac        .C      BICS     r4,r4,r5
        0x0000408e:    2501        .%      MOVS     r5,#1
        0x00004090:    062d        -.      LSLS     r5,r5,#24
        0x00004092:    1964        d.      ADDS     r4,r4,r5
        0x00004094:    60cc        .`      STR      r4,[r1,#0xc]
        0x00004096:    68cc        .h      LDR      r4,[r1,#0xc]
        0x00004098:    0ae4        ..      LSRS     r4,r4,#11
        0x0000409a:    02e4        ..      LSLS     r4,r4,#11
        0x0000409c:    4304        .C      ORRS     r4,r4,r0
        0x0000409e:    60cc        .`      STR      r4,[r1,#0xc]
        0x000040a0:    690c        .i      LDR      r4,[r1,#0x10]
        0x000040a2:    2501        .%      MOVS     r5,#1
        0x000040a4:    432c        ,C      ORRS     r4,r4,r5
        0x000040a6:    610c        .a      STR      r4,[r1,#0x10]
        0x000040a8:    694c        Li      LDR      r4,[r1,#0x14]
        0x000040aa:    0364        d.      LSLS     r4,r4,#13
        0x000040ac:    d4fc        ..      BMI      0x40a8 ; NVR_Erase + 46
        0x000040ae:    2421        !$      MOVS     r4,#0x21
        0x000040b0:    2100        .!      MOVS     r1,#0
        0x000040b2:    0240        @.      LSLS     r0,r0,#9
        0x000040b4:    05e4        ..      LSLS     r4,r4,#23
        0x000040b6:    2501        .%      MOVS     r5,#1
        0x000040b8:    026d        m.      LSLS     r5,r5,#9
        0x000040ba:    1846        F.      ADDS     r6,r0,r1
        0x000040bc:    1936        6.      ADDS     r6,r6,r4
        0x000040be:    6836        6h      LDR      r6,[r6,#0]
        0x000040c0:    1c76        v.      ADDS     r6,r6,#1
        0x000040c2:    d001        ..      BEQ      0x40c8 ; NVR_Erase + 78
        0x000040c4:    1c52        R.      ADDS     r2,r2,#1
        0x000040c6:    b2d2        ..      UXTB     r2,r2
        0x000040c8:    1d09        ..      ADDS     r1,r1,#4
        0x000040ca:    42a9        .B      CMP      r1,r5
        0x000040cc:    dbf5        ..      BLT      0x40ba ; NVR_Erase + 64
        0x000040ce:    2a00        .*      CMP      r2,#0
        0x000040d0:    d001        ..      BEQ      0x40d6 ; NVR_Erase + 92
        0x000040d2:    4618        .F      MOV      r0,r3
        0x000040d4:    bd70        p.      POP      {r4-r6,pc}
        0x000040d6:    2000        .       MOVS     r0,#0
        0x000040d8:    bd70        p.      POP      {r4-r6,pc}
    NVR_Write
        0x000040da:    2203        ."      MOVS     r2,#3
        0x000040dc:    b510        ..      PUSH     {r4,lr}
        0x000040de:    0292        ..      LSLS     r2,r2,#10
        0x000040e0:    4290        .B      CMP      r0,r2
        0x000040e2:    d812        ..      BHI      0x410a ; NVR_Write + 48
        0x000040e4:    4a09        .J      LDR      r2,[pc,#36] ; [0x410c] = 0x10ff0000
        0x000040e6:    68d3        .h      LDR      r3,[r2,#0xc]
        0x000040e8:    2403        .$      MOVS     r4,#3
        0x000040ea:    0624        $.      LSLS     r4,r4,#24
        0x000040ec:    43a3        .C      BICS     r3,r3,r4
        0x000040ee:    2401        .$      MOVS     r4,#1
        0x000040f0:    0624        $.      LSLS     r4,r4,#24
        0x000040f2:    191b        ..      ADDS     r3,r3,r4
        0x000040f4:    60d3        .`      STR      r3,[r2,#0xc]
        0x000040f6:    2321        !#      MOVS     r3,#0x21
        0x000040f8:    05db        ..      LSLS     r3,r3,#23
        0x000040fa:    18c0        ..      ADDS     r0,r0,r3
        0x000040fc:    6001        .`      STR      r1,[r0,#0]
        0x000040fe:    6950        Pi      LDR      r0,[r2,#0x14]
        0x00004100:    03c0        ..      LSLS     r0,r0,#15
        0x00004102:    d4fc        ..      BMI      0x40fe ; NVR_Write + 36
        0x00004104:    6950        Pi      LDR      r0,[r2,#0x14]
        0x00004106:    0380        ..      LSLS     r0,r0,#14
        0x00004108:    d4f9        ..      BMI      0x40fe ; NVR_Write + 36
        0x0000410a:    bd10        ..      POP      {r4,pc}
    $d
        0x0000410c:    10ff0000    ....    DCD    285147136
        0x00004110:    0000fff0    ....    DCD    65520

** Section #4 'RW_IRAM1' (SHT_PROGBITS) [SHF_ALLOC + SHF_WRITE]
    Size   : 76 bytes (alignment 4)
    Address: 0x00004114


** Section #5 'RW_IRAM1' (SHT_NOBITS) [SHF_ALLOC + SHF_WRITE]
    Size   : 2840 bytes (alignment 8)
    Address: 0x00004160


** Section #6 '.debug_abbrev' (SHT_PROGBITS)
    Size   : 1476 bytes


** Section #7 '.debug_frame' (SHT_PROGBITS)
    Size   : 2716 bytes


** Section #8 '.debug_info' (SHT_PROGBITS)
    Size   : 74656 bytes


** Section #9 '.debug_line' (SHT_PROGBITS)
    Size   : 20264 bytes


** Section #10 '.debug_loc' (SHT_PROGBITS)
    Size   : 6088 bytes


** Section #11 '.debug_macinfo' (SHT_PROGBITS)
    Size   : 26696 bytes


** Section #12 '.debug_pubnames' (SHT_PROGBITS)
    Size   : 3197 bytes


** Section #13 '.symtab' (SHT_SYMTAB)
    Size   : 8528 bytes (alignment 4)
    String table #14 '.strtab'
    Last local symbol no. 390


** Section #14 '.strtab' (SHT_STRTAB)
    Size   : 6716 bytes


** Section #15 '.note' (SHT_NOTE)
    Size   : 36 bytes (alignment 4)


** Section #16 '.comment' (SHT_PROGBITS)
    Size   : 51408 bytes


** Section #17 '.shstrtab' (SHT_STRTAB)
    Size   : 164 bytes


